(lp0
F1.4166829586029053
aF1.3326308727264404
aF1.3792760372161865
aF1.3561229705810547
aF1.343682050704956
aF1.3800609111785889
aF1.863800048828125
aF1.3899459838867188
aF1.4059419631958008
aF1.350639820098877
aF1.3395421504974365
aF1.0360448360443115
aF1.4589340686798096
aF1.3311128616333008
aF1.3199598789215088
aF1.8070318698883057
aF1.4938158988952637
aF1.3417019844055176
aF1.2911341190338135
aF1.5872480869293213
aF1.5771310329437256
aF1.5726330280303955
aF1.5747458934783936
aF1.8238959312438965
aF1.3499372005462646
aF1.6298060417175293
aF1.5335609912872314
aF1.6803779602050781
aF1.323211908340454
aF1.3335869312286377
aF1.3640899658203125
aF1.3783409595489502
a.