(lp0
F1.2987749576568604
aF1.2953770160675049
aF1.2783448696136475
aF1.284541130065918
aF1.2837719917297363
aF1.2824130058288574
aF1.2871389389038086
aF1.2943880558013916
aF1.2997610569000244
aF1.3185830116271973
aF1.3090829849243164
aF1.2825310230255127
aF1.303109884262085
aF1.3318309783935547
aF1.3257761001586914
aF1.298780918121338
aF1.3025579452514648
aF1.3379430770874023
aF1.495513916015625
aF1.3567328453063965
aF1.5949411392211914
aF1.3413050174713135
aF1.4283320903778076
aF1.511836051940918
aF1.8599090576171875
aF1.319411039352417
aF1.4394969940185547
aF1.4197330474853516
aF1.2830450534820557
aF1.2851359844207764
aF1.2810049057006836
aF1.592858076095581
aF1.5747780799865723
aF1.5700440406799316
aF1.5658249855041504
aF1.573268175125122
aF3.214510202407837
aF1.0727028846740723
aF1.2776451110839844
aF1.5453999042510986
aF1.2837598323822021
aF1.3321881294250488
aF1.3062782287597656
aF1.2872769832611084
aF1.3561768531799316
aF1.4294521808624268
a.