(lp0
F2.0125718116760254
aF1.323349952697754
aF1.34356689453125
aF1.295259952545166
aF1.3076200485229492
aF1.3115289211273193
aF1.2991671562194824
aF1.3268721103668213
aF1.6261827945709229
aF1.3708369731903076
aF1.419313907623291
aF1.3149540424346924
aF1.3163280487060547
aF1.2903380393981934
aF1.2817208766937256
aF1.287761926651001
aF1.3104989528656006
aF1.714918851852417
aF1.2756550312042236
aF1.3150041103363037
aF1.2992029190063477
aF1.3206589221954346
aF1.2882530689239502
aF1.2612318992614746
aF1.2680580615997314
aF1.2814171314239502
aF1.2772948741912842
aF1.2671070098876953
aF1.3002471923828125
aF1.2811110019683838
aF1.2705581188201904
aF1.300239086151123
aF1.2846050262451172
aF1.2803010940551758
aF1.2733180522918701
aF1.2826991081237793
aF1.275413990020752
aF1.2672078609466553
aF1.324718952178955
aF1.311992883682251
aF1.3618459701538086
aF1.2672269344329834
aF1.5185298919677734
aF1.3509387969970703
aF1.2992959022521973
aF1.3777580261230469
aF1.8124301433563232
aF1.3085689544677734
aF1.3029918670654297
aF1.3433868885040283
aF1.406770944595337
aF1.3305609226226807
aF1.3213298320770264
aF1.313330888748169
aF1.323819875717163
aF1.3182611465454102
aF1.4854319095611572
aF1.4292349815368652
aF1.386474847793579
aF1.8488130569458008
aF1.6445610523223877
aF1.913978099822998
aF1.6991949081420898
aF1.7868828773498535
aF1.991405963897705
aF2.018211841583252
aF1.6733369827270508
aF1.6266307830810547
aF1.6377317905426025
aF1.7126069068908691
aF1.785830020904541
aF1.4169628620147705
aF1.530984878540039
aF1.7002182006835938
aF1.4913289546966553
aF1.2647418975830078
aF1.2517621517181396
aF1.2668349742889404
aF1.240433931350708
aF1.2245838642120361
aF1.2327649593353271
aF1.2486400604248047
aF1.1589138507843018
aF1.0920560359954834
aF1.0935862064361572
aF1.0750279426574707
aF1.0738539695739746
aF1.0807578563690186
aF1.0530080795288086
aF1.069094181060791
aF1.0438549518585205
aF1.059338092803955
aF1.068681001663208
aF1.0664241313934326
aF1.1979858875274658
aF1.1008780002593994
aF1.0578479766845703
aF1.0337450504302979
aF1.0284090042114258
aF1.0479209423065186
aF1.311190128326416
aF1.0750830173492432
aF1.0248401165008545
aF0.9807498455047607
aF0.9790859222412109
aF1.0235848426818848
aF1.4561548233032227
aF1.3360610008239746
a.