(lp0
cnumpy.core.multiarray
scalar
p1
(cnumpy
dtype
p2
(S'f8'
p3
I0
I1
tp4
Rp5
(I3
S'<'
p6
NNNI-1
I-1
I0
tp7
bS'\xba\xf6\x87\xf2\xa3\xb1\x10@'
p8
tp9
Rp10
ag1
(g5
S'\x95\xc6/\xbf\x9a\x14\x0e@'
p11
tp12
Rp13
a.