(lp0
cnumpy.core.multiarray
scalar
p1
(cnumpy
dtype
p2
(S'f8'
p3
I0
I1
tp4
Rp5
(I3
S'<'
p6
NNNI-1
I-1
I0
tp7
bS'\x06o\x1ady\x88\x18@'
p8
tp9
Rp10
ag1
(g5
S'\xc4\x85\xc7\x0cH\xce\x16@'
p11
tp12
Rp13
ag1
(g5
S'\xa8]\xbd5\x8c\x02\x16@'
p14
tp15
Rp16
a.