(lp0
cnumpy.core.multiarray
scalar
p1
(cnumpy
dtype
p2
(S'f8'
p3
I0
I1
tp4
Rp5
(I3
S'<'
p6
NNNI-1
I-1
I0
tp7
bS'S\xea\xe9\x89\x9f\x8ee@'
p8
tp9
Rp10
ag1
(g5
S'\x7f.\x19\x88\xbe[c@'
p11
tp12
Rp13
ag1
(g5
S'M\xa96\x01\x0fcb@'
p14
tp15
Rp16
a.