(lp0
cnumpy.core.multiarray
scalar
p1
(cnumpy
dtype
p2
(S'f8'
p3
I0
I1
tp4
Rp5
(I3
S'<'
p6
NNNI-1
I-1
I0
tp7
bS'-\xb4\xdb\x0c\x17\xeb\xe5?'
p8
tp9
Rp10
ag1
(g5
S'\xea,\x8a\xed\xf0h\xe0?'
p11
tp12
Rp13
a.