(lp0
F1.1874899864196777
aF1.3281059265136719
aF1.337458848953247
aF1.2529120445251465
aF1.2443711757659912
aF1.216836929321289
aF1.2283909320831299
aF1.2210211753845215
aF1.247697114944458
aF1.3225810527801514
aF1.6506459712982178
aF2.0808401107788086
aF1.4811601638793945
aF1.415870189666748
aF1.3096919059753418
aF1.9565010070800781
aF1.8176929950714111
aF1.6894240379333496
aF1.6961898803710938
aF1.7679839134216309
aF2.1856131553649902
aF1.6842899322509766
aF1.857193946838379
aF1.3426499366760254
aF1.3227958679199219
aF1.3416240215301514
aF1.4670729637145996
aF2.047598123550415
aF1.9217579364776611
aF1.5753710269927979
aF1.5530829429626465
aF1.6320159435272217
aF1.5841989517211914
aF1.3562870025634766
aF1.3685369491577148
aF1.2519598007202148
aF1.209258794784546
aF1.2758910655975342
aF1.4828870296478271
aF1.3576948642730713
aF1.3052489757537842
aF1.2973730564117432
aF1.304023027420044
aF1.3621160984039307
aF1.2999589443206787
aF1.7570440769195557
aF1.7316529750823975
aF1.4704930782318115
aF1.564384937286377
aF1.613386869430542
aF1.5075709819793701
aF1.501378059387207
aF1.5072031021118164
aF1.5732450485229492
aF1.7574758529663086
aF1.562851905822754
aF1.2792739868164062
aF1.2950990200042725
aF1.3442389965057373
aF1.312196969985962
aF1.8016278743743896
aF1.3519728183746338
aF1.296684980392456
aF1.3041200637817383
aF1.6399180889129639
aF2.0133559703826904
aF1.3230860233306885
aF1.7628779411315918
aF1.333716869354248
aF1.2909729480743408
aF1.5439260005950928
aF1.3135719299316406
aF1.539919137954712
aF1.7131938934326172
aF1.4132471084594727
aF1.2532470226287842
aF1.2794711589813232
aF1.2487468719482422
aF1.2427690029144287
aF1.239734172821045
aF1.2377471923828125
aF1.2737147808074951
aF1.21128511428833
aF1.2320761680603027
aF1.2220861911773682
aF1.6891670227050781
aF1.9394569396972656
aF1.370162010192871
aF1.4032151699066162
aF1.3452999591827393
aF1.3697271347045898
aF1.3752241134643555
aF1.3332409858703613
aF1.3520281314849854
aF1.3229420185089111
aF1.351768970489502
aF1.5679738521575928
aF1.5568599700927734
aF1.3449649810791016
aF1.3523991107940674
aF1.3069610595703125
aF1.3193080425262451
aF1.4453260898590088
aF1.5526509284973145
aF1.6401920318603516
aF1.5410919189453125
aF1.524096965789795
aF1.3402957916259766
aF1.3224937915802002
aF1.2515931129455566
aF1.2250890731811523
aF1.223390817642212
aF1.2414450645446777
aF1.3851830959320068
aF1.535336971282959
aF1.3766160011291504
aF1.444180965423584
aF1.4844789505004883
aF1.3673810958862305
aF1.5683698654174805
aF1.5976409912109375
aF1.413222074508667
aF1.2486751079559326
aF1.2528610229492188
aF1.2820310592651367
aF1.4245431423187256
aF1.2404630184173584
aF1.2570469379425049
aF1.2542269229888916
aF1.2456700801849365
aF1.2828009128570557
aF1.2678210735321045
aF1.294438123703003
aF1.50830078125
aF1.383047103881836
aF1.304960012435913
aF1.3500590324401855
aF1.5147039890289307
aF1.3040599822998047
aF1.328808069229126
aF1.5583460330963135
aF1.9016389846801758
aF2.1254279613494873
aF1.769392967224121
aF1.8304929733276367
aF1.6131649017333984
aF1.504300832748413
aF1.6107409000396729
aF2.186924934387207
aF2.7098090648651123
aF2.048379898071289
aF1.562978982925415
aF1.8369319438934326
aF1.8881912231445312
aF1.964186191558838
aF1.9981119632720947
aF2.2682089805603027
aF2.526214122772217
aF1.6035680770874023
aF2.2183749675750732
aF1.4874370098114014
aF1.4587910175323486
aF1.7372629642486572
aF1.7609570026397705
aF1.8998918533325195
aF1.6516859531402588
aF2.431298017501831
aF1.762092113494873
aF1.5158159732818604
aF1.5052788257598877
aF1.433171033859253
aF1.4314098358154297
aF1.4357271194458008
aF1.47843599319458
aF1.4634499549865723
aF1.817368984222412
aF1.9400689601898193
aF1.5006709098815918
aF1.5025520324707031
aF2.123670816421509
aF2.8005897998809814
aF1.9357390403747559
aF2.382395029067993
aF1.4921720027923584
aF1.6253111362457275
aF2.342045783996582
aF2.845676898956299
aF3.180511951446533
aF2.6000659465789795
aF1.5703299045562744
aF1.8579919338226318
aF2.3510451316833496
aF1.9528980255126953
aF1.9825959205627441
aF2.510478973388672
aF1.690659999847412
aF1.3863849639892578
aF1.2347850799560547
aF1.25718092918396
aF1.254837989807129
aF1.2691960334777832
aF1.3932912349700928
aF1.422029972076416
aF1.4040119647979736
aF1.3577940464019775
aF1.4270050525665283
aF1.398488998413086
aF1.412268877029419
aF1.3986420631408691
aF1.3816940784454346
aF1.4237000942230225
aF1.5713551044464111
a.