(lp0
F1.7749519348144531
aF1.7775990962982178
aF1.5801129341125488
aF1.5595331192016602
aF1.7001690864562988
aF1.8383572101593018
aF1.798487901687622
aF1.8463129997253418
aF1.8531179428100586
aF1.8165390491485596
aF1.8106439113616943
aF1.8849079608917236
aF1.877892017364502
aF1.7974112033843994
aF1.823249101638794
aF1.8329038619995117
aF1.8454899787902832
aF1.8517580032348633
aF1.8370599746704102
aF1.7473440170288086
aF1.574967861175537
aF1.592961072921753
aF1.824632167816162
aF1.8218059539794922
aF1.8728690147399902
aF1.8217380046844482
aF1.8087189197540283
aF1.8319621086120605
aF1.7064762115478516
aF1.600743055343628
aF1.5642390251159668
aF1.566479206085205
aF1.5739490985870361
aF1.638465166091919
aF1.5744531154632568
aF1.5354020595550537
aF1.6347098350524902
aF1.5616159439086914
aF1.5513219833374023
aF1.6193780899047852
aF1.584441900253296
aF1.6265511512756348
aF1.5658228397369385
aF1.6240448951721191
aF1.5858697891235352
a.