(lp0
F2.5113348960876465
aF2.0149459838867188
aF2.0080602169036865
aF1.9760329723358154
aF1.9826998710632324
aF1.9335260391235352
aF2.121344804763794
aF2.0638561248779297
aF2.0476949214935303
aF2.0892019271850586
aF2.0862619876861572
aF2.1065430641174316
aF2.0706770420074463
aF2.0905821323394775
aF2.102217197418213
aF2.1046130657196045
aF2.08978009223938
aF2.10406494140625
aF2.085901975631714
aF2.0948970317840576
aF2.086074113845825
aF2.095324993133545
aF2.1044931411743164
aF2.093425989151001
aF2.09177303314209
aF2.0768449306488037
aF2.065509080886841
aF2.060581922531128
aF2.073604106903076
aF2.1231560707092285
aF2.086732864379883
aF2.0767900943756104
aF2.09670090675354
aF2.087642192840576
aF2.090657949447632
aF2.0767619609832764
aF2.1010489463806152
aF2.1070151329040527
aF2.1011340618133545
aF2.0944418907165527
aF2.1062240600585938
aF2.095452070236206
aF2.0981528759002686
aF2.105844020843506
aF2.1100399494171143
aF2.1098320484161377
aF2.103628158569336
aF2.1157150268554688
aF2.1089367866516113
aF2.077329158782959
aF2.0836470127105713
aF2.0981979370117188
aF2.1113219261169434
aF2.097095012664795
aF2.089848041534424
aF2.0862178802490234
aF2.108788013458252
aF2.0585169792175293
aF2.103654146194458
aF2.1063590049743652
aF2.1039071083068848
aF2.092737913131714
aF2.0882468223571777
aF2.0898690223693848
aF2.0691678524017334
aF2.06923508644104
aF2.0776970386505127
aF2.111501932144165
aF2.0895588397979736
aF2.0917911529541016
aF2.093702793121338
aF2.08548903465271
aF2.086879014968872
aF2.1116459369659424
aF2.104326009750366
aF2.0987908840179443
aF2.10365891456604
aF2.0931999683380127
aF2.085568904876709
aF2.1060690879821777
aF2.083103895187378
aF2.0950541496276855
aF2.1073238849639893
aF2.080012083053589
aF2.1039538383483887
aF2.0994300842285156
aF2.0808751583099365
aF2.110213041305542
aF2.10896897315979
aF2.1016829013824463
aF2.093878984451294
aF2.097443103790283
aF2.094499111175537
aF2.102771043777466
aF2.113773822784424
aF2.1219849586486816
aF2.0836241245269775
aF2.097409963607788
aF2.077143907546997
aF2.076478958129883
aF2.086946964263916
aF2.114060878753662
aF2.1000869274139404
aF2.0917139053344727
aF2.0930919647216797
aF2.0924830436706543
aF2.0790200233459473
aF2.0739588737487793
aF2.067807912826538
aF2.0813658237457275
aF2.0724329948425293
aF2.092055082321167
aF2.085723876953125
aF2.0836291313171387
aF2.0749149322509766
aF2.0973548889160156
aF2.0763211250305176
aF2.080338954925537
aF2.0903890132904053
aF2.090456962585449
aF2.0720510482788086
aF2.076775074005127
aF2.0727591514587402
aF2.0909600257873535
aF2.076917886734009
aF2.090646982192993
aF2.0897719860076904
aF2.0830180644989014
aF2.069222927093506
aF2.0768959522247314
aF2.07114315032959
aF2.09067702293396
aF2.0832149982452393
aF2.0993409156799316
aF2.077878952026367
aF2.0710771083831787
aF2.0632848739624023
aF2.019906997680664
aF2.0308120250701904
aF2.037003993988037
aF2.0522170066833496
aF2.030381202697754
aF2.0240390300750732
aF2.0602059364318848
aF2.051464796066284
aF2.0539369583129883
aF2.0352468490600586
aF2.0433030128479004
aF2.047740936279297
aF2.037497043609619
aF1.997192144393921
aF2.0042920112609863
aF1.9668102264404297
aF1.98337984085083
aF2.036005973815918
aF2.085937023162842
aF2.1049540042877197
aF1.9721348285675049
aF1.9377849102020264
aF1.9815940856933594
aF1.9606518745422363
aF2.0122787952423096
aF1.956078052520752
aF1.9863231182098389
aF1.9527301788330078
aF1.9461829662322998
aF1.981492042541504
aF1.9754750728607178
aF1.942939043045044
aF1.9969489574432373
aF1.937371015548706
aF1.9859318733215332
aF1.9657549858093262
aF1.9868590831756592
aF1.9507479667663574
aF1.940173864364624
aF1.9360201358795166
aF1.9348909854888916
aF1.9153401851654053
aF1.927367925643921
aF1.937837839126587
aF1.9238159656524658
aF1.922029972076416
aF1.9239299297332764
aF1.949981927871704
aF1.9634790420532227
aF1.9491920471191406
aF1.9381020069122314
aF1.9426190853118896
aF1.9324328899383545
aF1.9343550205230713
aF1.9635210037231445
aF1.946209192276001
aF1.9618778228759766
aF1.9437990188598633
aF1.964514970779419
aF1.9537971019744873
aF1.9407551288604736
aF1.949812889099121
aF1.931919813156128
aF1.924849033355713
aF1.951812982559204
aF1.9598619937896729
aF1.952923059463501
aF1.9448919296264648
aF1.9534480571746826
aF1.903710126876831
aF1.9298219680786133
aF1.9402410984039307
aF1.9434750080108643
aF1.9271531105041504
aF1.9499399662017822
aF1.9255740642547607
aF1.938197135925293
aF1.902440071105957
aF1.926537036895752
aF1.9460599422454834
aF1.9540050029754639
aF1.942418098449707
aF1.9342999458312988
aF1.9456310272216797
aF1.9645719528198242
aF1.9167909622192383
aF1.9446508884429932
aF1.952237844467163
aF1.9341199398040771
aF1.9552910327911377
aF1.9314889907836914
aF1.9502580165863037
aF1.9582459926605225
aF1.926692008972168
aF1.9527769088745117
aF1.9443669319152832
aF1.955502986907959
aF1.924504041671753
aF1.9508709907531738
aF1.9305720329284668
aF1.964768886566162
aF1.9360170364379883
aF1.9283180236816406
aF1.9404780864715576
aF1.9314539432525635
aF1.952103853225708
aF1.944861888885498
aF1.9418230056762695
aF1.9353249073028564
aF1.9467408657073975
aF1.9282810688018799
aF1.9201290607452393
aF1.9316930770874023
aF1.940335988998413
aF1.9310729503631592
aF1.9346389770507812
aF1.928772211074829
aF1.9188179969787598
aF1.9495868682861328
aF1.9052398204803467
aF1.9861249923706055
aF1.990445852279663
aF1.990886926651001
aF1.9918408393859863
aF1.946645975112915
aF1.9437098503112793
aF1.9287571907043457
aF1.9462368488311768
aF1.9326319694519043
aF1.9652400016784668
aF1.9891788959503174
aF1.96579909324646
aF1.9757161140441895
aF1.9680328369140625
aF1.9668059349060059
aF1.9555511474609375
aF1.9605109691619873
aF1.941744089126587
aF1.9572100639343262
aF1.9526820182800293
aF1.8859219551086426
aF1.892240047454834
aF1.8735527992248535
aF1.8800849914550781
aF1.882667064666748
aF1.8711390495300293
aF1.8841760158538818
aF1.8716650009155273
aF1.8835759162902832
aF1.8698980808258057
aF1.8841989040374756
aF1.8723540306091309
aF1.8807501792907715
aF1.880836009979248
aF1.872905969619751
aF1.8777410984039307
aF1.8719611167907715
aF1.8782551288604736
aF1.8720901012420654
aF1.8787541389465332
aF1.8731858730316162
aF1.8783459663391113
aF1.8721411228179932
a.