(lp0
F2.5570790767669678
aF2.0750510692596436
aF2.0992929935455322
aF2.054935932159424
aF2.0838441848754883
aF2.1078059673309326
aF2.096824884414673
aF2.076260805130005
aF2.0845601558685303
aF2.0924808979034424
aF2.0911829471588135
aF2.091120958328247
aF2.080944776535034
aF2.0976438522338867
aF2.083962917327881
aF2.0901718139648438
aF2.0778510570526123
aF2.074276924133301
aF2.0582170486450195
aF2.069333076477051
aF2.113152027130127
aF2.0881900787353516
aF2.0768840312957764
aF2.0989410877227783
aF2.0975139141082764
aF2.098043203353882
aF2.0736820697784424
aF2.101975917816162
aF2.098017930984497
aF2.0993239879608154
aF2.0939950942993164
aF2.1049628257751465
aF2.100586175918579
aF2.110570192337036
aF2.064547061920166
aF2.106687068939209
aF2.0877509117126465
aF2.1045448780059814
aF2.097930908203125
aF2.0995309352874756
aF2.0796010494232178
aF2.0750551223754883
aF2.074483871459961
aF2.111506938934326
aF2.0869009494781494
aF2.087786912918091
aF2.087313175201416
aF2.0994808673858643
aF2.071510076522827
aF2.0805470943450928
aF2.0815019607543945
aF2.0980100631713867
aF2.0779030323028564
aF2.089038133621216
aF2.0812668800354004
aF2.0736441612243652
aF2.070631980895996
aF2.083885908126831
aF2.096713066101074
aF2.0866241455078125
aF2.087484836578369
aF2.0879781246185303
aF2.084805965423584
aF2.0764122009277344
aF2.095020055770874
aF2.1035308837890625
aF2.0819900035858154
aF2.1007490158081055
aF2.0642669200897217
aF2.1115939617156982
aF2.0553970336914062
aF2.0888590812683105
aF2.0707931518554688
aF2.0721499919891357
aF2.073734998703003
aF2.0961971282958984
aF2.065295934677124
aF2.087545156478882
aF2.080867052078247
aF2.081580877304077
aF2.0721681118011475
aF2.08723783493042
aF2.072356939315796
aF2.0816919803619385
aF2.0706188678741455
aF2.0918338298797607
aF2.0870909690856934
aF2.074981212615967
aF2.0885698795318604
aF2.076596975326538
aF2.123807907104492
aF2.051793098449707
aF2.1000328063964844
aF2.0617189407348633
aF2.0792481899261475
aF2.0628271102905273
aF2.0620951652526855
aF2.112291097640991
aF2.090872049331665
aF2.185389995574951
aF2.130211114883423
aF2.176290988922119
aF2.1162400245666504
aF2.138118028640747
aF2.1540651321411133
aF2.1298580169677734
aF2.1417319774627686
aF2.1144418716430664
aF2.0817439556121826
aF2.085625171661377
aF2.0862879753112793
aF2.0823988914489746
aF2.0966570377349854
aF2.084951877593994
aF2.0698509216308594
aF2.0725347995758057
aF2.068065881729126
aF2.101102113723755
aF2.1089091300964355
aF2.1031718254089355
aF2.0905368328094482
aF2.0676109790802
aF2.08052921295166
aF2.0906381607055664
aF2.0783438682556152
aF2.0967090129852295
aF2.1064069271087646
aF2.1680290699005127
aF2.172560930252075
aF2.178804874420166
aF2.137563943862915
aF2.1661150455474854
aF2.175191879272461
aF2.147503137588501
aF2.138934850692749
aF2.1464431285858154
aF2.1444499492645264
aF2.1563680171966553
aF2.147418975830078
aF2.1535449028015137
aF2.068326950073242
aF2.011497974395752
aF1.943911075592041
aF2.0135531425476074
aF2.0288848876953125
aF1.9707331657409668
aF1.962183952331543
aF1.9970471858978271
aF2.057934045791626
aF1.9595980644226074
aF2.039764165878296
aF1.974303960800171
aF2.0213098526000977
aF1.9997060298919678
aF2.038278818130493
aF2.039720058441162
aF1.9869658946990967
aF2.012089967727661
aF2.0571229457855225
aF1.9753358364105225
aF2.0143020153045654
aF2.0451128482818604
aF2.0329811573028564
aF1.9786691665649414
a.