(lp0
F3.0085620880126953
aF2.4141409397125244
aF2.5979180335998535
aF2.206505060195923
aF3.571047067642212
aF2.2645351886749268
aF3.4991509914398193
aF2.3201990127563477
aF3.187865972518921
aF2.368476152420044
aF3.019602060317993
aF2.3108489513397217
aF2.4908549785614014
aF2.1478888988494873
aF2.2610671520233154
aF1.840623140335083
aF1.832669973373413
aF1.977977991104126
aF1.9842770099639893
aF1.9736881256103516
aF1.9886090755462646
aF1.9874470233917236
aF1.959273099899292
aF1.9886891841888428
aF1.9410312175750732
aF1.9794089794158936
aF1.9773211479187012
aF1.9744908809661865
aF1.9781081676483154
aF1.9780709743499756
aF1.8453311920166016
aF1.890604019165039
aF1.8832690715789795
aF1.9340848922729492
aF1.8191399574279785
aF1.792922019958496
aF1.8776328563690186
aF1.8783848285675049
aF1.9360079765319824
aF1.7919731140136719
aF1.8738009929656982
aF1.8405539989471436
aF1.744267225265503
aF1.7755520343780518
aF1.7843821048736572
aF1.7904269695281982
aF1.767138957977295
aF1.8001179695129395
aF1.7422480583190918
aF1.7855491638183594
aF1.7823481559753418
aF1.7996430397033691
aF1.7860240936279297
aF1.7914340496063232
aF1.7763161659240723
aF1.8148431777954102
aF1.8155758380889893
aF1.7909600734710693
aF1.763322114944458
aF1.770462989807129
aF1.7562029361724854
aF1.7806241512298584
aF1.7796030044555664
aF1.7806529998779297
aF1.7576370239257812
aF1.7773449420928955
aF1.7692220211029053
aF1.7753398418426514
aF1.7480769157409668
aF1.7647969722747803
a.