(lp0
F3.6461989879608154
aF2.8939340114593506
aF2.866602897644043
aF2.8703720569610596
aF2.866455078125
aF2.86598801612854
aF2.8631370067596436
aF2.866981029510498
aF2.863698959350586
aF2.866328001022339
aF2.862279176712036
aF2.8666088581085205
aF2.8628900051116943
aF2.867387056350708
aF2.863645076751709
aF2.8683550357818604
aF2.8630800247192383
aF2.865321159362793
aF2.8625831604003906
aF2.865980863571167
aF2.8624789714813232
aF2.8671398162841797
aF2.8621249198913574
aF2.865509033203125
aF2.862414836883545
aF2.865086793899536
aF2.86224102973938
aF2.8655450344085693
aF2.862807035446167
aF2.865309953689575
aF2.859807014465332
aF2.8653950691223145
aF2.859039068222046
aF2.8635759353637695
aF2.860806941986084
aF2.861906051635742
aF2.8586559295654297
aF2.86125111579895
aF2.8595900535583496
aF2.8627569675445557
aF2.8576691150665283
aF2.864147186279297
aF2.8574140071868896
aF2.860924005508423
aF2.8569560050964355
aF2.857546091079712
aF2.8338139057159424
aF2.857038974761963
aF2.8340067863464355
aF2.858908176422119
aF2.83310604095459
aF2.85657000541687
aF2.8332159519195557
aF2.856734037399292
aF2.8327860832214355
aF2.8557119369506836
aF2.833360195159912
aF2.8561899662017822
aF2.8328170776367188
aF2.8568379878997803
aF2.832170009613037
aF2.8563520908355713
aF2.8326478004455566
aF2.8563499450683594
aF2.8332619667053223
aF2.856545925140381
aF2.8327879905700684
aF2.8554768562316895
aF2.8326051235198975
aF2.8570899963378906
aF2.8335981369018555
aF2.8571131229400635
aF2.832714796066284
aF2.8579578399658203
aF2.8326308727264404
aF2.8582921028137207
aF2.833104133605957
aF2.857063055038452
aF2.8324360847473145
aF2.8569371700286865
aF2.833432912826538
aF2.857128143310547
aF2.832770824432373
aF2.8564929962158203
aF2.832301139831543
aF2.856628179550171
aF2.8328189849853516
aF2.8555150032043457
aF2.832469940185547
aF2.8561110496520996
aF2.8326008319854736
aF2.8561580181121826
aF2.8324129581451416
aF2.8568220138549805
aF2.832368850708008
aF2.855884075164795
aF2.8329739570617676
aF2.8570261001586914
aF2.832669973373413
aF2.855800151824951
aF2.832711935043335
aF2.8580009937286377
aF2.832451105117798
aF2.8568129539489746
aF2.8329858779907227
aF2.8560822010040283
aF2.8327829837799072
aF2.8560028076171875
aF2.8327269554138184
aF2.857318162918091
aF2.832346200942993
aF2.8569421768188477
aF2.832484006881714
aF2.856916904449463
aF2.8327488899230957
aF2.856252908706665
aF2.832214832305908
aF2.855947971343994
aF2.832447052001953
aF2.855832815170288
aF2.832637071609497
aF2.856734037399292
aF2.832524061203003
aF2.856487989425659
aF2.8327441215515137
aF2.856642007827759
aF2.8332669734954834
aF2.8561909198760986
aF2.8321011066436768
aF2.8568999767303467
aF2.832832098007202
aF2.8561010360717773
aF2.8332021236419678
aF2.8563568592071533
aF2.832509994506836
aF2.8558239936828613
aF2.832509994506836
aF2.857034921646118
aF2.832698106765747
aF2.8560750484466553
aF2.8323118686676025
aF2.85591983795166
aF2.8329520225524902
aF2.856001138687134
aF2.832736015319824
aF2.8569529056549072
aF2.8330190181732178
aF2.8563480377197266
aF2.8332951068878174
aF2.8572170734405518
aF2.832556962966919
aF2.856431007385254
aF2.8332178592681885
aF2.8576931953430176
aF2.8329808712005615
aF2.855881929397583
aF2.833404064178467
aF2.8569889068603516
aF2.832535982131958
aF2.857430934906006
aF2.832642078399658
aF2.8574459552764893
aF2.833815097808838
aF2.8564188480377197
a.