(lp0
F2.154289960861206
aF1.6972718238830566
aF1.7258780002593994
aF1.7032599449157715
aF1.7283952236175537
aF1.7310791015625
aF1.717176914215088
aF1.745793104171753
aF1.685122013092041
aF1.690911054611206
aF1.7216298580169678
aF1.7188811302185059
aF1.7317490577697754
aF1.7446820735931396
aF1.689479112625122
aF1.7349910736083984
aF1.7753710746765137
aF1.684081792831421
aF1.7122251987457275
aF1.687648057937622
aF1.7057340145111084
aF1.6985368728637695
aF1.7509829998016357
aF1.6950349807739258
aF1.7434089183807373
aF1.7324910163879395
aF1.7406558990478516
aF1.6790010929107666
aF1.8038640022277832
aF1.705132007598877
aF1.7584152221679688
aF1.7699100971221924
aF1.8391599655151367
aF1.8089330196380615
aF1.80743408203125
aF1.727649211883545
aF1.6741621494293213
aF1.786020040512085
aF1.757714033126831
aF1.7168340682983398
aF1.7076289653778076
aF1.7239978313446045
aF1.7268469333648682
aF1.7505919933319092
aF1.754244089126587
aF1.6772267818450928
aF1.7505970001220703
aF1.7874279022216797
aF1.7136719226837158
aF1.7460298538208008
aF1.735137939453125
aF1.7272870540618896
aF1.6719701290130615
aF1.7192490100860596
aF1.7253029346466064
aF1.818324089050293
aF1.801677942276001
aF1.8255670070648193
aF1.7194089889526367
aF1.7586658000946045
aF1.6979990005493164
aF1.6904571056365967
aF1.7510161399841309
aF1.6963839530944824
aF1.7110249996185303
aF1.69032883644104
aF1.726473093032837
aF1.7079370021820068
aF1.7711830139160156
aF1.821274995803833
aF1.7626299858093262
aF1.8165981769561768
aF1.7924699783325195
aF1.833634853363037
aF1.6803269386291504
aF1.7416038513183594
aF1.796360969543457
aF1.7213168144226074
aF1.844689130783081
aF1.7244009971618652
aF1.7419700622558594
aF1.7584168910980225
aF1.7471070289611816
aF1.7724788188934326
aF1.767225980758667
aF1.6900670528411865
aF1.7401280403137207
aF1.7501912117004395
aF1.7410180568695068
aF1.8297359943389893
aF1.7801151275634766
aF1.736400842666626
aF1.7072319984436035
aF1.7591500282287598
aF1.6976170539855957
aF1.762455940246582
aF1.7673630714416504
aF4.152412176132202
aF9.380652904510498
aF7.6361589431762695
aF8.419634819030762
aF2.3349428176879883
aF1.8090400695800781
aF1.7258589267730713
aF1.7848680019378662
aF1.715574026107788
aF1.6878280639648438
aF1.751378059387207
aF1.752636194229126
aF1.7274329662322998
aF1.719040870666504
aF1.676429033279419
aF1.7113449573516846
aF1.7135910987854004
aF1.6748731136322021
aF1.7288861274719238
aF1.7074859142303467
aF1.705517053604126
aF1.7022600173950195
aF1.7254469394683838
aF1.7656188011169434
aF1.8620219230651855
aF1.7797589302062988
aF1.7045931816101074
aF1.7187790870666504
aF1.6965370178222656
aF1.7277500629425049
aF1.728132963180542
aF1.6947121620178223
aF1.6837589740753174
aF1.787471055984497
aF1.7398180961608887
aF1.704056978225708
aF1.675577163696289
aF1.7829139232635498
aF1.7338662147521973
aF1.7732808589935303
aF1.736421823501587
aF1.7363460063934326
aF1.7278718948364258
aF1.7067289352416992
aF1.7355120182037354
aF1.7130680084228516
aF1.7314488887786865
aF1.7838330268859863
aF1.8077950477600098
aF1.7469258308410645
aF1.8163349628448486
aF1.8277108669281006
aF1.7345480918884277
aF1.7026069164276123
aF1.8263559341430664
aF1.7396280765533447
aF1.7212591171264648
aF1.7049219608306885
aF1.7392690181732178
aF1.6802208423614502
aF1.7163879871368408
aF1.67274808883667
aF1.7289860248565674
aF1.6979939937591553
aF1.6732590198516846
aF1.6734042167663574
aF1.6875519752502441
aF1.710623025894165
aF1.740009069442749
aF1.7554280757904053
aF1.7187120914459229
aF1.7293550968170166
aF1.6993300914764404
aF1.7105178833007812
aF1.7307238578796387
aF1.6886508464813232
aF1.6858301162719727
aF1.6975581645965576
aF1.6958730220794678
aF1.6777338981628418
aF1.7098689079284668
aF1.704068899154663
aF1.7426788806915283
aF1.7425329685211182
aF1.8331880569458008
aF1.7457940578460693
aF1.7423930168151855
aF1.7025561332702637
aF1.7290451526641846
aF1.7242050170898438
aF1.7166080474853516
aF1.7016210556030273
aF1.7109911441802979
aF1.670705795288086
aF1.7152400016784668
aF1.7151849269866943
aF1.7001240253448486
aF1.7453970909118652
aF1.6842329502105713
aF1.6865239143371582
aF1.7319519519805908
aF1.7076079845428467
aF1.7076001167297363
aF1.6902828216552734
aF1.75034499168396
aF1.702242136001587
aF1.7713429927825928
aF1.6919128894805908
aF1.7228779792785645
aF1.699836015701294
aF1.7402989864349365
aF1.730712890625
aF1.728403091430664
aF1.7151310443878174
aF1.699098825454712
aF1.7499260902404785
aF1.7029268741607666
aF1.7646090984344482
aF1.7520909309387207
aF1.8177869319915771
aF1.7045531272888184
aF1.7063660621643066
aF1.7200589179992676
aF1.6533610820770264
aF1.678865909576416
aF1.6577069759368896
aF1.6873290538787842
aF1.6684479713439941
aF1.6668579578399658
aF1.6702489852905273
aF1.6630730628967285
aF1.64656400680542
aF1.666903018951416
a.