(lp0
F2.0137321949005127
aF1.374070167541504
aF1.3760080337524414
aF1.3729660511016846
aF1.3757050037384033
aF1.36940598487854
aF1.3722939491271973
aF1.368588924407959
aF1.380053997039795
aF1.3700330257415771
aF1.371392011642456
aF1.3680510520935059
aF1.4586870670318604
aF1.4063701629638672
aF1.3785400390625
aF1.4079639911651611
aF1.4518787860870361
aF1.4228649139404297
aF1.4463560581207275
aF1.4092340469360352
aF1.4338219165802002
aF1.4278299808502197
aF1.4177179336547852
aF1.4453670978546143
aF1.4274399280548096
aF1.519322156906128
aF1.4809389114379883
aF1.4822490215301514
aF1.5591139793395996
aF1.5393168926239014
aF1.5197410583496094
aF1.551745891571045
aF1.516723871231079
aF1.5069599151611328
aF1.5415561199188232
aF1.4715309143066406
aF1.519252061843872
aF1.471919059753418
aF1.539931058883667
aF1.469731092453003
aF1.50642991065979
aF1.504323959350586
aF1.498870849609375
aF1.4894630908966064
aF1.538625955581665
aF1.5181820392608643
aF1.5128560066223145
aF1.488297939300537
aF1.5477240085601807
aF1.5309979915618896
aF1.518028974533081
aF1.539175033569336
aF1.5197908878326416
aF1.5336589813232422
aF1.472322940826416
aF1.5630509853363037
aF1.5009899139404297
aF1.49043607711792
aF1.55063796043396
aF1.531731128692627
aF1.570127010345459
aF1.5468261241912842
aF1.5702159404754639
aF1.5741422176361084
aF1.5234389305114746
aF1.465533971786499
aF1.5216188430786133
aF1.4844028949737549
aF1.5056860446929932
aF1.5148930549621582
aF1.521399974822998
aF1.5172250270843506
aF1.5046539306640625
aF1.5192439556121826
aF1.524940013885498
aF1.6798419952392578
aF1.6730780601501465
aF1.6215898990631104
aF1.6624882221221924
aF1.8577771186828613
aF1.5160350799560547
aF1.5043048858642578
aF1.4759180545806885
aF1.460373878479004
aF1.4780230522155762
aF1.4634599685668945
aF1.5287790298461914
aF1.4617061614990234
aF1.4637620449066162
aF1.4847168922424316
aF1.4917340278625488
aF1.4692161083221436
aF1.4763360023498535
aF1.4964158535003662
aF1.4597411155700684
aF1.4914870262145996
aF1.5101687908172607
aF1.4941458702087402
aF1.4804911613464355
aF1.4767539501190186
aF1.4995219707489014
aF1.465743064880371
aF1.479166030883789
aF1.4757540225982666
aF1.5342609882354736
aF1.4852650165557861
aF1.4673998355865479
aF1.4603021144866943
aF1.4978010654449463
aF1.4581811428070068
aF1.4843358993530273
aF1.4991331100463867
aF1.6752738952636719
aF2.0487020015716553
aF2.3778281211853027
aF1.6681180000305176
aF2.282336950302124
aF1.7364788055419922
aF2.411949872970581
aF1.8228139877319336
aF2.2588729858398438
aF1.7029268741607666
aF2.218902826309204
aF1.9059910774230957
aF2.059458017349243
aF1.8799159526824951
aF1.8915300369262695
aF1.7592260837554932
aF1.7582731246948242
aF1.9905309677124023
aF2.32135009765625
aF1.7269139289855957
aF2.056823968887329
aF1.6989459991455078
aF1.4921891689300537
aF1.4911398887634277
aF1.490351915359497
aF1.4847230911254883
aF1.4692318439483643
aF1.452713966369629
aF1.480384111404419
aF1.467736005783081
aF1.471257209777832
aF1.4478678703308105
aF1.4940969944000244
aF1.484442949295044
aF1.4667329788208008
aF1.4650089740753174
aF1.4824299812316895
aF1.684581995010376
aF1.671666145324707
aF1.8024721145629883
aF1.7407209873199463
aF1.8771038055419922
aF2.1718289852142334
aF1.813188076019287
aF2.248579978942871
aF1.781095027923584
aF1.887864112854004
aF1.6535990238189697
aF2.180704116821289
aF1.985055923461914
aF2.0357840061187744
aF1.6459200382232666
aF1.4488520622253418
aF1.4289228916168213
aF1.465569019317627
aF1.5062439441680908
aF1.5047080516815186
aF1.460906982421875
aF1.5089828968048096
aF1.4781100749969482
aF1.5038139820098877
aF1.468836784362793
aF1.4711971282958984
aF1.4523379802703857
aF1.4928779602050781
aF1.5892798900604248
aF1.5075900554656982
aF1.588554859161377
aF1.6359329223632812
aF1.510909080505371
aF1.4884400367736816
aF1.4810588359832764
aF1.4573369026184082
aF1.4592270851135254
aF1.5810389518737793
aF1.581247091293335
aF1.701923131942749
aF1.653899908065796
aF1.612091064453125
aF1.715076208114624
aF1.5407359600067139
aF1.7083241939544678
aF1.921825885772705
aF1.9110782146453857
aF2.752197027206421
aF1.8422009944915771
aF2.144402027130127
aF2.0583608150482178
aF1.9599568843841553
aF1.5907540321350098
aF1.582489013671875
aF1.5063860416412354
aF1.6696419715881348
aF1.7563679218292236
aF1.988170862197876
aF1.446263074874878
aF1.4572789669036865
aF1.5414700508117676
aF1.9582171440124512
aF1.786808967590332
aF1.761955976486206
aF1.503666877746582
aF1.50730299949646
aF1.4846251010894775
aF1.4712409973144531
aF1.548326015472412
aF1.5292019844055176
aF1.511564016342163
aF1.5048840045928955
aF1.4672791957855225
aF1.4832868576049805
aF1.483262062072754
aF1.7226109504699707
aF1.6118531227111816
aF1.5453519821166992
aF1.5289740562438965
aF1.5978648662567139
aF1.6394720077514648
a.