(lp0
F2.344287872314453
aF1.874983787536621
aF1.849025011062622
aF1.8332810401916504
aF1.9851620197296143
aF1.8998351097106934
aF1.8705799579620361
aF2.0053420066833496
aF2.198483943939209
aF2.1550378799438477
aF2.211184024810791
aF2.2219130992889404
aF2.2226510047912598
aF2.1957428455352783
aF2.202669143676758
aF2.153531074523926
aF2.181034803390503
aF2.117990016937256
aF2.1785309314727783
aF2.123483896255493
aF2.1683290004730225
aF2.141793966293335
aF2.1695621013641357
aF2.1450111865997314
aF2.18704891204834
aF2.124052047729492
aF2.2169129848480225
aF2.191859006881714
aF2.2221169471740723
aF2.151421070098877
aF2.1771721839904785
aF2.127556085586548
aF2.176208019256592
aF2.164202928543091
aF2.277345895767212
aF2.2430100440979004
aF2.277351140975952
aF2.2080721855163574
aF2.2132461071014404
aF2.1999919414520264
aF2.015416145324707
aF2.026801109313965
aF2.062659978866577
aF1.97501802444458
aF2.085381031036377
aF2.0998551845550537
aF2.005105972290039
aF2.0615930557250977
aF2.0198869705200195
aF2.0306570529937744
aF2.0921847820281982
aF2.033003091812134
aF2.09676194190979
aF2.0605459213256836
aF2.042046070098877
aF1.9937388896942139
aF2.034025192260742
aF2.0923421382904053
aF2.0700290203094482
aF2.091987133026123
aF2.1062910556793213
aF1.9917058944702148
aF2.116535186767578
aF2.149441957473755
aF2.1283600330352783
aF1.963507890701294
aF1.9898300170898438
aF2.1655077934265137
aF1.9717741012573242
aF1.9872260093688965
aF1.9633920192718506
aF1.9877808094024658
aF1.984989881515503
aF1.993541955947876
aF1.9816911220550537
aF2.0401761531829834
aF1.9199950695037842
aF1.9831221103668213
aF1.9851701259613037
aF1.997286081314087
aF1.968297004699707
aF1.9739341735839844
aF1.9413278102874756
aF2.0130419731140137
aF2.010164976119995
aF1.989177942276001
aF1.985713005065918
aF2.038389205932617
aF1.9859421253204346
aF1.9959499835968018
aF2.0240278244018555
aF2.029740810394287
aF1.981369972229004
aF2.076819896697998
aF1.9748899936676025
aF2.0504300594329834
aF1.974931001663208
aF2.024009943008423
aF2.0570120811462402
aF2.040663003921509
aF1.970961093902588
aF1.9776811599731445
aF1.9227728843688965
aF1.9361159801483154
aF1.937615156173706
aF1.9369580745697021
aF1.9428448677062988
aF1.9356739521026611
aF1.9261479377746582
aF1.9314160346984863
aF1.9455440044403076
aF1.9411132335662842
aF1.956282138824463
aF1.9603989124298096
aF1.9362330436706543
aF1.9234039783477783
aF1.9415478706359863
aF1.934791088104248
aF1.955009937286377
aF1.935823917388916
aF1.9324581623077393
aF1.9294559955596924
aF1.9322571754455566
aF1.9343700408935547
aF1.940122127532959
aF1.9392671585083008
aF1.9320120811462402
aF1.9250860214233398
aF1.9256391525268555
aF1.9400129318237305
aF1.9360640048980713
aF1.9422399997711182
aF1.9504480361938477
aF1.9190011024475098
aF1.9547169208526611
aF1.9115819931030273
aF1.8961398601531982
aF1.9070680141448975
aF1.8471999168395996
aF1.8269169330596924
aF1.8659639358520508
aF1.875580072402954
aF1.8765738010406494
aF1.8629250526428223
aF1.86183500289917
aF1.8575890064239502
aF1.843297004699707
aF1.8597700595855713
aF1.8484301567077637
aF1.81964111328125
aF1.883476972579956
aF1.8293259143829346
aF1.8188481330871582
aF1.8752589225769043
aF1.8606219291687012
aF1.835669994354248
aF1.8736119270324707
aF1.9251480102539062
aF1.9131460189819336
aF1.9257080554962158
aF1.922327995300293
aF1.9296700954437256
aF1.8828179836273193
aF1.8284759521484375
a.