(lp0
F2.1753029823303223
aF2.4122908115386963
aF2.536296844482422
aF1.5653541088104248
aF1.5744049549102783
aF1.5601329803466797
aF1.5652611255645752
aF1.5494699478149414
aF1.5526540279388428
aF1.5475399494171143
aF1.5723021030426025
aF1.868427038192749
aF1.8841660022735596
aF1.9402239322662354
aF2.2792530059814453
aF2.7809438705444336
aF2.075424909591675
aF1.9318859577178955
aF2.5208208560943604
aF2.3695878982543945
aF2.2748498916625977
aF1.8768670558929443
aF1.970782995223999
aF1.8594071865081787
aF1.8695869445800781
aF1.674065113067627
aF1.6824440956115723
aF1.9119758605957031
a.