(lp0
F1.9482131004333496
aF1.3672199249267578
aF1.3740389347076416
aF1.3739988803863525
aF1.3627979755401611
aF1.3572471141815186
aF1.3575029373168945
aF1.357388973236084
aF1.3567030429840088
aF1.362626075744629
aF1.35605788230896
aF1.3568580150604248
aF1.4061310291290283
aF1.4063818454742432
aF1.3946220874786377
aF1.3714821338653564
aF1.4197988510131836
aF1.401642084121704
aF1.3786518573760986
aF1.3940110206604004
aF1.4234261512756348
aF1.4198510646820068
aF1.4162161350250244
aF1.3976020812988281
aF1.4234399795532227
aF1.506525993347168
aF1.4931771755218506
aF1.4804301261901855
aF1.5341501235961914
aF1.5984761714935303
aF1.64933180809021
aF1.6256968975067139
aF1.7858688831329346
aF1.6784579753875732
aF1.7630667686462402
aF1.6545600891113281
aF1.7354159355163574
aF1.6386728286743164
aF1.7827351093292236
aF1.6798079013824463
aF1.7425761222839355
aF1.655838966369629
aF1.7291429042816162
aF1.6893959045410156
aF1.708549976348877
aF1.6666791439056396
aF1.7110130786895752
aF1.6964268684387207
aF1.7292330265045166
aF1.6583600044250488
aF1.761281967163086
aF1.6550438404083252
aF1.7446999549865723
aF1.6694540977478027
aF1.780480146408081
aF1.6750869750976562
aF1.7086279392242432
aF1.6936111450195312
aF1.729759931564331
aF1.6713471412658691
aF1.7355589866638184
aF1.6846299171447754
aF1.7998638153076172
aF1.6824660301208496
aF1.7477009296417236
aF1.6531751155853271
aF1.7725801467895508
aF1.6890850067138672
aF2.0903549194335938
aF1.8882310390472412
aF2.2868521213531494
aF1.8227529525756836
aF2.5825700759887695
aF1.7253611087799072
aF1.7773520946502686
aF1.7538468837738037
aF1.8124871253967285
aF1.7854359149932861
aF1.7868070602416992
aF1.7078440189361572
aF1.856877088546753
aF1.7071199417114258
aF1.7828800678253174
aF1.729133129119873
aF1.7800359725952148
aF1.7086281776428223
aF1.815321922302246
aF1.6762850284576416
aF1.8041739463806152
aF1.7421700954437256
aF1.8523919582366943
aF1.760895013809204
aF1.7966458797454834
aF1.7716999053955078
aF1.798063039779663
aF1.763381004333496
aF1.854020118713379
aF1.6920452117919922
aF1.8555009365081787
aF1.6932098865509033
aF1.7330009937286377
aF1.48225998878479
aF1.5256102085113525
aF1.6914608478546143
aF1.5396199226379395
aF1.4800269603729248
aF1.5155651569366455
aF1.455726146697998
aF1.4810099601745605
aF1.5107660293579102
aF1.5392239093780518
aF1.5429251194000244
aF1.4794001579284668
aF1.519683837890625
aF1.5107450485229492
aF1.5137898921966553
aF1.556791067123413
aF1.4736759662628174
aF1.464663028717041
aF1.5007178783416748
aF1.4944570064544678
aF1.467336893081665
aF1.490346908569336
aF1.4546639919281006
aF1.4944121837615967
aF1.587157964706421
aF1.522130012512207
aF1.5273418426513672
aF1.5723519325256348
aF1.707448959350586
aF1.4931039810180664
aF1.5331590175628662
aF1.504688024520874
aF1.5460550785064697
aF1.48260498046875
aF1.5344669818878174
aF1.5412681102752686
aF1.5296499729156494
aF1.4190609455108643
aF1.481226921081543
aF1.7540650367736816
aF1.490933895111084
aF1.5183520317077637
aF1.4389498233795166
aF1.456739902496338
aF1.4820079803466797
aF1.4784801006317139
aF1.4848098754882812
aF1.5008940696716309
aF1.4932780265808105
aF1.4413490295410156
aF1.6047759056091309
aF1.4737119674682617
aF1.4750308990478516
aF1.4906551837921143
aF1.4816639423370361
aF1.5060977935791016
aF1.4513530731201172
aF1.5070781707763672
aF1.540403127670288
aF1.4416370391845703
aF1.4718499183654785
aF1.4715909957885742
aF1.5362629890441895
aF1.46675705909729
aF1.535660982131958
aF1.5407218933105469
aF1.5164241790771484
aF1.4476380348205566
aF1.4981861114501953
aF1.5182809829711914
aF1.5032739639282227
aF1.509432077407837
aF1.5215470790863037
aF1.5051867961883545
aF1.5071771144866943
aF1.5060601234436035
aF1.481539011001587
aF1.516592025756836
aF1.5013577938079834
aF1.5237250328063965
aF1.4428541660308838
aF1.6266319751739502
aF1.5977380275726318
aF1.6744730472564697
aF1.5838329792022705
aF1.605499029159546
aF1.6082079410552979
aF1.6469831466674805
aF1.499610185623169
aF1.4934020042419434
aF1.4301848411560059
aF1.509732961654663
aF1.4687089920043945
aF1.5091140270233154
aF1.5001351833343506
aF1.4957008361816406
aF1.463435173034668
aF1.5826749801635742
aF1.4856932163238525
aF1.4890408515930176
aF1.4244790077209473
aF1.5706980228424072
aF1.6092841625213623
aF1.554663896560669
aF1.5685269832611084
aF1.496805191040039
aF1.6221067905426025
aF1.5550990104675293
aF1.466939926147461
aF1.4727511405944824
aF1.4549529552459717
aF1.4382030963897705
aF1.5009548664093018
aF1.4191579818725586
aF1.6413140296936035
aF1.5196990966796875
aF1.5233259201049805
aF1.5404160022735596
aF1.4119157791137695
aF1.6000280380249023
aF1.5843260288238525
aF1.5256619453430176
aF1.6652460098266602
aF1.5182068347930908
aF1.4276859760284424
aF1.4542779922485352
aF1.4390559196472168
aF1.4206161499023438
aF1.4164199829101562
a.