(lp0
F17.10313105583191
aF14.830952167510986
aF14.749876976013184
aF14.78100299835205
aF14.708418846130371
aF14.788546085357666
aF14.698123931884766
aF14.785185813903809
aF14.694189071655273
aF14.775838851928711
aF14.688306093215942
aF14.683974027633667
aF14.449362993240356
aF14.450937032699585
aF14.431679010391235
aF14.605834007263184
aF14.431400060653687
aF14.612771987915039
aF14.430298805236816
aF14.611855030059814
aF14.429289102554321
aF14.59693193435669
aF14.429188013076782
aF14.613100051879883
aF14.429776191711426
aF14.610075950622559
aF14.430636167526245
aF14.611116170883179
aF14.432945966720581
aF14.506119966506958
aF14.433418989181519
aF14.597615957260132
aF14.430958986282349
aF14.594749927520752
aF14.431341886520386
aF14.604190111160278
aF14.432342052459717
aF14.596911907196045
aF14.43376898765564
aF14.598565101623535
aF14.432756900787354
aF14.593761920928955
aF14.435095071792603
aF14.599607944488525
aF14.433840036392212
aF14.60739016532898
aF14.433189868927002
aF14.44886589050293
aF14.432926177978516
aF14.586851119995117
aF14.433673858642578
aF14.60110092163086
aF14.428912878036499
aF14.609380006790161
aF14.42880892753601
aF14.60371208190918
aF14.433689832687378
aF14.609360933303833
aF14.427249193191528
aF14.618170976638794
aF14.426555871963501
aF14.618716955184937
aF14.427112102508545
aF14.463529109954834
aF14.424527883529663
aF14.61161208152771
aF14.426839113235474
aF14.599460124969482
aF14.429087162017822
aF14.614148139953613
aF14.428627014160156
aF14.602987051010132
aF14.426081895828247
aF14.631546020507812
aF14.427238941192627
aF14.619745016098022
aF14.427220106124878
aF14.614850044250488
aF14.429023027420044
aF14.55819296836853
aF14.424160957336426
aF14.641271829605103
aF14.428771018981934
aF14.640244007110596
aF14.425637006759644
aF14.634644985198975
aF14.425693035125732
aF14.631550073623657
aF14.428729057312012
aF14.628083944320679
aF14.42779803276062
aF14.644497871398926
aF14.427990913391113
aF14.629848957061768
aF14.427496910095215
aF14.641890048980713
aF14.427756071090698
aF14.454724073410034
aF14.42859697341919
aF14.62575101852417
aF14.426302909851074
aF14.623086214065552
aF14.427330017089844
aF14.623076915740967
aF14.427127838134766
aF14.624788045883179
aF14.426470041275024
aF14.606405019760132
aF14.419344902038574
aF14.609777927398682
aF14.416083097457886
aF14.616055011749268
aF14.417633056640625
aF14.448555946350098
aF14.418410062789917
aF14.61995792388916
aF14.422788143157959
aF14.603548049926758
aF14.422115802764893
aF14.609080076217651
aF14.420347929000854
aF14.604315042495728
aF14.42019009590149
aF14.60453200340271
aF14.4221351146698
a.