(lp0
F2.366267204284668
aF1.9412989616394043
aF2.003309965133667
aF1.9875590801239014
aF2.106470823287964
aF2.100172996520996
aF2.122400999069214
aF2.06984806060791
aF2.0714800357818604
aF2.0793869495391846
aF2.0844268798828125
aF2.109769105911255
aF2.098162889480591
aF2.0890259742736816
aF2.065337896347046
aF2.078510046005249
aF2.1011691093444824
aF2.052053928375244
aF2.0855941772460938
aF2.0333399772644043
aF2.0784130096435547
aF2.0248570442199707
aF2.0523009300231934
aF2.043976068496704
aF2.0529308319091797
aF2.0549190044403076
aF2.079648971557617
aF2.049589157104492
aF2.0606131553649902
aF2.0354230403900146
aF2.0571420192718506
aF2.0404999256134033
aF2.0622100830078125
aF2.026113986968994
aF2.0249810218811035
aF2.072098970413208
aF2.0258920192718506
aF2.0444159507751465
aF2.0369930267333984
aF2.0528788566589355
aF2.0247418880462646
aF2.0396149158477783
aF2.0370829105377197
aF2.0489041805267334
aF2.0454559326171875
aF2.0539238452911377
aF2.0401360988616943
aF2.050712823867798
aF2.0387349128723145
aF2.0567710399627686
aF2.0488500595092773
aF2.0673139095306396
aF2.0400710105895996
aF2.038889169692993
aF2.074475049972534
aF2.0996639728546143
aF2.090351104736328
aF2.0906012058258057
aF2.097003936767578
aF2.0697591304779053
aF2.095241069793701
aF2.065816879272461
aF2.106868028640747
aF2.0768489837646484
aF2.1021039485931396
aF2.081707000732422
aF2.1009249687194824
aF2.0846781730651855
aF2.0899038314819336
aF2.061004877090454
aF2.0504379272460938
aF2.038667917251587
aF2.05446195602417
aF2.067685127258301
aF2.0365350246429443
aF2.0872318744659424
aF2.0872459411621094
aF2.115492820739746
aF2.0937399864196777
aF2.087480068206787
aF2.0886309146881104
aF2.0779871940612793
aF2.099637985229492
aF2.111840009689331
aF2.079742908477783
aF2.1351051330566406
aF2.0949549674987793
aF2.078089952468872
aF2.1106150150299072
aF2.092850923538208
aF2.086622953414917
aF2.101233959197998
aF2.0991790294647217
aF2.107854127883911
aF2.1150119304656982
aF2.1081151962280273
aF2.0975019931793213
aF2.0857720375061035
aF2.084062099456787
aF2.0867209434509277
aF2.0937440395355225
aF2.0932319164276123
aF2.114224910736084
aF2.0895299911499023
aF2.072456121444702
aF2.102586030960083
aF2.1037540435791016
aF2.0818560123443604
aF2.090118885040283
aF2.0886149406433105
aF2.078244924545288
aF2.0641250610351562
aF2.086629867553711
aF2.0997331142425537
aF2.089104175567627
aF2.1089608669281006
aF2.096608877182007
aF2.0774009227752686
aF2.1005680561065674
aF2.067265033721924
aF2.094735860824585
aF2.080400228500366
aF2.0796849727630615
aF2.1043381690979004
aF2.078479051589966
aF2.0878398418426514
aF2.092982053756714
aF2.0736329555511475
aF2.0848960876464844
aF2.083804130554199
aF2.0856659412384033
aF2.0856029987335205
aF2.097867012023926
aF2.0879480838775635
aF2.0894927978515625
aF2.0784621238708496
aF2.0823328495025635
aF2.028883934020996
aF2.0225398540496826
aF2.024040937423706
aF2.0303900241851807
aF2.0399389266967773
aF2.0138819217681885
aF2.053292989730835
aF2.0489730834960938
aF2.063279151916504
aF2.0363149642944336
aF2.041163206100464
aF2.0333640575408936
aF2.046592950820923
a.