(lp0
F1.609853982925415
aF1.5731050968170166
aF1.605046033859253
aF1.7106280326843262
aF1.592468023300171
aF1.5821120738983154
aF1.5774281024932861
aF1.595716953277588
aF1.57853102684021
aF1.646265983581543
aF1.9025709629058838
aF1.6879539489746094
aF1.6643030643463135
aF1.5640099048614502
aF2.02958083152771
aF2.3016130924224854
aF1.8419318199157715
aF2.177554130554199
aF1.5795881748199463
aF1.5967011451721191
aF2.0977890491485596
aF1.8557350635528564
aF1.8583900928497314
aF2.0677590370178223
aF1.5865461826324463
aF1.6133038997650146
aF1.59157395362854
aF1.6427061557769775
aF1.6073901653289795
aF1.5797550678253174
aF1.5878570079803467
aF1.5977768898010254
aF1.5958640575408936
aF2.0288589000701904
aF1.9721779823303223
aF2.0019960403442383
aF2.288983106613159
aF2.017299175262451
aF2.381442070007324
aF2.113292932510376
aF2.610379934310913
aF1.5546810626983643
aF1.644331932067871
aF1.599334955215454
aF1.642467975616455
aF1.6678428649902344
aF1.9104440212249756
aF1.8632760047912598
aF1.7957940101623535
aF1.6974029541015625
aF1.8244578838348389
aF1.5031919479370117
aF1.2593469619750977
aF1.4498679637908936
aF1.2293031215667725
aF1.2105069160461426
aF1.4280600547790527
aF1.8053898811340332
aF1.912390947341919
aF1.9479150772094727
aF1.7721869945526123
aF1.67641282081604
aF1.9099719524383545
aF1.791745901107788
aF2.0301342010498047
aF1.6011559963226318
aF1.3144140243530273
aF1.86279296875
aF2.9129538536071777
aF1.3217389583587646
aF1.6796510219573975
aF1.9211289882659912
aF1.7712690830230713
aF1.5925118923187256
aF1.8095901012420654
aF1.7958688735961914
aF1.8086330890655518
aF1.4121899604797363
aF1.3568150997161865
aF1.5367751121520996
aF1.9416191577911377
aF1.9803290367126465
aF1.9490320682525635
aF1.6856567859649658
aF2.0204718112945557
aF2.0069241523742676
aF1.9080867767333984
aF1.8199989795684814
aF1.3403100967407227
aF1.8011109828948975
aF2.098829984664917
aF1.6351299285888672
aF1.791369915008545
aF1.787003993988037
aF1.803555965423584
aF1.7993781566619873
aF1.7979280948638916
aF1.7994449138641357
aF1.7734460830688477
aF1.7966248989105225
aF1.2697598934173584
aF1.4923861026763916
aF1.3745920658111572
aF1.8278391361236572
aF2.031558036804199
aF1.8495569229125977
aF2.033041000366211
aF2.0304110050201416
aF1.9851269721984863
aF1.971189022064209
aF1.7356159687042236
aF1.642435073852539
aF1.4546358585357666
aF1.8084120750427246
aF1.9437448978424072
aF2.093061923980713
aF2.0173449516296387
aF1.7533981800079346
aF1.9974000453948975
aF2.07938289642334
aF1.8526341915130615
aF1.7768521308898926
aF1.8884410858154297
aF1.7814090251922607
aF2.050046920776367
aF1.8139550685882568
aF1.8346061706542969
aF1.7782049179077148
aF2.0114359855651855
aF1.9647998809814453
aF2.04557204246521
aF1.8223018646240234
aF1.869933843612671
aF1.85026216506958
aF1.8826229572296143
aF1.8618829250335693
aF1.937809944152832
aF1.92905592918396
aF1.8700261116027832
aF1.8487169742584229
aF1.8619208335876465
aF1.7482571601867676
aF1.7761809825897217
aF1.7789280414581299
aF1.6791949272155762
aF1.6639719009399414
aF1.6906969547271729
aF1.7031729221343994
aF1.8139660358428955
aF1.8157439231872559
aF1.8319778442382812
aF1.9337308406829834
aF1.855565071105957
aF1.8441050052642822
aF1.8646471500396729
aF1.851546049118042
aF1.8540780544281006
aF1.9271738529205322
aF1.7716009616851807
aF2.0130410194396973
aF1.8204700946807861
aF1.6772210597991943
aF1.6041209697723389
aF1.918119192123413
aF1.8272860050201416
aF1.6976978778839111
aF1.8767509460449219
aF1.709563970565796
aF1.7125489711761475
aF1.6786680221557617
aF1.789478063583374
aF1.880422830581665
aF1.7552399635314941
aF1.7423250675201416
aF1.8307571411132812
aF1.7724480628967285
aF1.8901679515838623
aF1.8400897979736328
aF1.8885879516601562
aF1.813598871231079
aF1.4754390716552734
aF1.7414779663085938
aF1.9299988746643066
aF1.6979618072509766
aF1.92854905128479
aF1.71651291847229
aF1.8669190406799316
aF1.775871992111206
aF1.6822199821472168
aF1.9151368141174316
aF1.6956589221954346
aF1.8187541961669922
aF1.8174049854278564
aF2.023159980773926
aF1.4581701755523682
aF1.6734278202056885
aF1.9467918872833252
aF2.0417048931121826
aF1.6917119026184082
aF1.6856510639190674
aF1.7049520015716553
aF2.1536688804626465
aF1.650406837463379
aF1.6588380336761475
aF1.7579970359802246
aF2.1569550037384033
aF1.8628959655761719
aF1.7452380657196045
aF1.8165111541748047
aF1.7854299545288086
aF2.8258309364318848
aF2.7400050163269043
aF2.155162811279297
aF1.8909809589385986
aF1.7331249713897705
aF1.7667601108551025
aF1.744102954864502
aF2.5286130905151367
aF2.3592429161071777
aF2.732814073562622
aF2.4191060066223145
aF2.6717920303344727
aF2.1540300846099854
aF2.8248708248138428
aF1.8821752071380615
aF2.820261001586914
aF2.6569159030914307
aF1.691960096359253
aF2.1524300575256348
aF1.585407018661499
aF1.7180860042572021
aF2.104240894317627
aF1.7387280464172363
aF1.651559829711914
aF1.42557692527771
aF1.640699863433838
aF2.00061297416687
aF2.0775740146636963
aF2.022526979446411
aF2.029798984527588
aF2.291353940963745
aF2.255362033843994
aF2.2088589668273926
aF1.9292500019073486
aF1.9009730815887451
aF1.946937084197998
aF1.8624188899993896
aF1.8107330799102783
aF1.9793891906738281
aF1.6825218200683594
a.