(lp0
F3.5548269748687744
aF2.234840154647827
aF2.1216180324554443
aF2.0533359050750732
aF1.9497690200805664
aF2.0948469638824463
aF2.4786570072174072
aF2.5249810218811035
aF2.1664879322052
aF2.392632007598877
aF2.0892741680145264
aF2.290104866027832
aF2.121428966522217
aF3.0931360721588135
aF3.05185604095459
aF2.483477830886841
aF6.067543029785156
aF3.3344311714172363
aF3.419456958770752
aF3.1097049713134766
aF2.4143340587615967
aF2.4425108432769775
aF2.389641046524048
aF2.5521950721740723
aF3.0734028816223145
aF2.2873220443725586
aF2.261223077774048
aF2.316098928451538
aF1.9871079921722412
aF2.078371047973633
aF2.2436468601226807
aF2.2492799758911133
aF2.0967929363250732
aF2.180001974105835
aF2.00473690032959
aF2.251110076904297
aF2.352811098098755
aF2.0986599922180176
aF2.3392820358276367
aF2.476046085357666
aF3.4752349853515625
aF2.3627471923828125
aF5.841939926147461
aF2.2268779277801514
aF2.2186710834503174
aF2.2533979415893555
aF2.2210161685943604
aF2.1372110843658447
aF2.255823850631714
aF2.2403628826141357
aF1.9685800075531006
aF2.2101290225982666
aF5.0172388553619385
aF2.361668825149536
aF5.152697801589966
aF2.741323947906494
aF4.616333961486816
aF3.2681119441986084
aF3.7231040000915527
aF2.0970821380615234
aF2.070262908935547
aF2.363780975341797
aF4.259889125823975
aF2.456151008605957
aF2.3846118450164795
aF2.3641669750213623
aF2.375515937805176
aF2.374039888381958
aF2.0457890033721924
aF2.4862918853759766
aF2.0656659603118896
aF2.0630130767822266
aF2.0472350120544434
aF2.0597341060638428
aF2.0598669052124023
aF3.1992850303649902
aF4.610306024551392
aF2.7949390411376953
aF2.2357189655303955
aF2.238722801208496
aF2.2296431064605713
aF2.239905834197998
aF2.3016629219055176
aF2.0557868480682373
aF2.252892017364502
aF2.3947720527648926
aF2.3169069290161133
aF2.403825044631958
aF2.1599459648132324
aF2.0797321796417236
aF2.2766811847686768
aF2.180727958679199
aF2.3720860481262207
aF2.40403413772583
aF2.1203839778900146
aF2.118831157684326
aF2.007051944732666
aF2.19730806350708
aF2.276984214782715
aF2.256459951400757
aF2.2305099964141846
aF2.091614007949829
aF2.057533025741577
aF2.059213876724243
aF2.3409628868103027
aF2.4677910804748535
aF2.1916239261627197
aF2.1194939613342285
aF2.0377259254455566
aF2.0263020992279053
aF2.1283481121063232
aF2.267706871032715
aF2.183689832687378
aF2.2260379791259766
aF2.0207080841064453
aF2.200063943862915
aF2.222548007965088
aF2.3663411140441895
aF2.110366106033325
aF2.0688021183013916
aF2.0166399478912354
aF2.0716938972473145
aF2.261593818664551
aF2.189905881881714
aF2.004218101501465
aF2.09244704246521
aF2.029036045074463
aF2.032855987548828
aF2.2749760150909424
aF2.3670411109924316
aF2.347470998764038
aF2.5148441791534424
aF3.8640308380126953
aF2.3741300106048584
aF3.3986730575561523
aF2.6171488761901855
aF3.1530399322509766
aF2.3656928539276123
aF2.3845150470733643
aF2.354334831237793
aF2.388946056365967
aF2.3258399963378906
aF6.906574010848999
aF3.3583099842071533
aF5.996551036834717
aF2.826319932937622
aF4.613838195800781
aF2.615973949432373
aF4.3635029792785645
aF2.8554539680480957
aF3.135571002960205
aF2.922797918319702
aF5.193427085876465
aF2.498518943786621
aF3.210690975189209
aF2.4446489810943604
aF3.2270469665527344
aF2.7229061126708984
aF3.1004600524902344
aF2.43009614944458
aF3.2571799755096436
aF2.4820449352264404
aF4.523597955703735
aF3.164557933807373
a.