(lp0
F2.475813150405884
aF2.0275230407714844
aF2.042915105819702
aF1.9642179012298584
aF1.999927043914795
aF2.0931107997894287
aF2.150278091430664
aF2.093549966812134
aF2.0728611946105957
aF2.0149130821228027
aF2.060894012451172
aF2.0138649940490723
aF2.2328619956970215
aF2.1124088764190674
aF2.118601083755493
aF2.1444759368896484
aF2.0851550102233887
aF2.0831100940704346
aF2.0987110137939453
aF2.211210012435913
aF2.1374430656433105
aF2.055933952331543
aF2.0703890323638916
aF2.2012898921966553
aF2.1465210914611816
aF2.0172338485717773
aF2.225198984146118
aF2.1084840297698975
aF2.093621015548706
aF2.1560370922088623
aF2.0540292263031006
aF2.0541579723358154
aF2.085487127304077
aF2.03757905960083
aF2.1978070735931396
aF2.0199460983276367
aF2.249140977859497
aF2.0781471729278564
aF2.0938498973846436
aF2.0687880516052246
aF2.196758985519409
aF2.0354199409484863
aF1.9881069660186768
aF2.037487030029297
aF2.126904010772705
aF2.0308291912078857
aF1.9996869564056396
aF2.1157588958740234
aF2.066904067993164
aF2.022472858428955
aF2.1021480560302734
aF2.2028450965881348
aF2.241940975189209
aF2.1991848945617676
aF2.0913619995117188
aF2.083883047103882
aF2.1568548679351807
aF2.0584371089935303
aF2.124753952026367
aF1.9855399131774902
aF2.061805009841919
aF2.2056469917297363
aF2.176934003829956
aF2.066175937652588
aF2.1575469970703125
aF2.046754837036133
aF2.1566200256347656
aF1.9774060249328613
aF2.073068141937256
aF2.034107208251953
aF2.2176620960235596
aF2.0109260082244873
aF2.1794729232788086
aF2.1600048542022705
aF2.2246978282928467
aF2.077331066131592
aF2.1774401664733887
aF2.036238193511963
aF2.002218008041382
aF2.00211501121521
aF1.97735595703125
aF1.9425158500671387
aF2.2707419395446777
aF2.216317892074585
aF1.961648941040039
aF2.2107300758361816
aF2.1599509716033936
aF2.0619609355926514
aF2.1511390209198
aF2.0505800247192383
aF2.2262051105499268
aF2.0038321018218994
aF2.0072999000549316
aF2.037065029144287
aF2.0573489665985107
aF2.0424869060516357
aF2.056547164916992
aF1.9913790225982666
aF2.0012919902801514
aF2.02034592628479
aF2.012639045715332
aF1.9961159229278564
aF1.9989631175994873
aF1.9643349647521973
aF1.9859709739685059
aF1.9675769805908203
aF2.2421088218688965
aF2.265329122543335
aF2.0214719772338867
aF1.9457991123199463
aF1.9747660160064697
aF2.0421969890594482
aF2.0825390815734863
aF2.0098960399627686
aF1.9773108959197998
aF2.0874931812286377
aF2.2298648357391357
aF2.208467960357666
aF2.0448601245880127
aF2.0349199771881104
aF1.9738280773162842
aF1.9471168518066406
aF2.010999917984009
aF1.9750699996948242
aF1.9735889434814453
aF2.07865309715271
aF2.3154821395874023
aF2.266089916229248
aF2.100633144378662
aF2.1497929096221924
aF2.022531032562256
aF2.002218008041382
aF2.0439231395721436
aF1.9766459465026855
aF2.0184240341186523
aF1.9888548851013184
aF1.9491031169891357
aF2.1405019760131836
aF2.0307199954986572
aF2.0210530757904053
aF2.0340728759765625
aF2.0718460083007812
aF2.0137939453125
aF2.0624260902404785
aF1.970578908920288
aF2.083146095275879
aF1.9670929908752441
aF2.0151658058166504
aF2.0138139724731445
aF2.0031898021698
aF2.0351240634918213
aF2.0146119594573975
aF2.0553929805755615
aF1.996716022491455
aF2.0005598068237305
aF2.009509801864624
aF2.0039899349212646
aF2.161452054977417
aF1.9428019523620605
aF2.045353889465332
aF2.0239310264587402
aF2.0200560092926025
aF1.9682319164276123
aF2.020172119140625
aF2.0199780464172363
aF1.991926908493042
aF2.005544900894165
aF2.216238021850586
aF2.1729280948638916
aF2.0072710514068604
aF2.2100841999053955
aF2.046776056289673
aF1.9995949268341064
aF2.1611039638519287
aF2.0074660778045654
aF2.1600520610809326
aF2.013140916824341
aF2.0919079780578613
aF2.0152649879455566
aF2.080116033554077
aF2.021700859069824
aF2.1372861862182617
aF2.1004538536071777
aF2.1239559650421143
aF2.1767170429229736
aF2.1108319759368896
aF2.0319271087646484
aF2.0115559101104736
aF1.9908719062805176
aF2.0414068698883057
aF1.9807279109954834
aF2.0071499347686768
aF1.9938700199127197
aF2.040457010269165
aF1.9858291149139404
aF1.9498369693756104
aF1.9452011585235596
aF1.9357850551605225
aF1.9217329025268555
aF1.9289100170135498
aF1.926429033279419
aF1.9346990585327148
aF1.9516921043395996
aF1.955838918685913
aF1.9273200035095215
aF1.9509539604187012
aF1.9433550834655762
aF1.9375
aF1.9312529563903809
aF1.9413011074066162
aF1.9145028591156006
aF1.8891220092773438
aF1.93489408493042
aF1.9379029273986816
aF1.937596082687378
aF1.9482920169830322
aF1.9395859241485596
aF1.9147908687591553
aF1.929394006729126
aF1.9151759147644043
aF1.9329180717468262
aF1.9363088607788086
aF1.9272968769073486
aF1.9349250793457031
aF1.935478925704956
aF1.9177470207214355
aF1.9127070903778076
aF1.9357459545135498
aF1.9302780628204346
aF1.942579984664917
a.