(lp0
F2.715668201446533
aF1.7910070419311523
aF1.7960538864135742
aF1.8237979412078857
aF1.8285508155822754
aF1.8409430980682373
aF1.7964890003204346
aF1.7622151374816895
aF1.8213558197021484
aF1.7488598823547363
aF1.7811031341552734
aF1.76658296585083
aF1.9700019359588623
aF1.898859977722168
aF1.7365450859069824
aF1.8713819980621338
aF1.767915964126587
aF1.7187809944152832
aF1.6659400463104248
aF1.6682219505310059
aF1.6222350597381592
aF1.624859094619751
aF1.5607309341430664
aF1.6036860942840576
aF1.7067410945892334
aF1.7427749633789062
aF1.7028541564941406
aF1.7097809314727783
aF1.6962029933929443
aF1.6925301551818848
aF1.6968660354614258
aF1.7040221691131592
aF1.7033729553222656
aF1.701476812362671
aF1.719905138015747
aF1.7304539680480957
aF1.7388877868652344
aF1.7138991355895996
aF1.696281909942627
aF1.6932299137115479
aF1.718346118927002
aF1.7203290462493896
aF1.623878002166748
aF1.599764108657837
aF1.6712100505828857
aF1.7070858478546143
aF1.6147561073303223
aF1.674767017364502
aF1.6906440258026123
aF1.6233038902282715
aF1.6205589771270752
aF1.614638090133667
aF1.6999070644378662
aF1.7251639366149902
aF1.6998639106750488
aF1.7350678443908691
aF1.6501798629760742
aF1.6886520385742188
aF1.552574872970581
aF1.6297810077667236
aF1.6489670276641846
aF1.6754188537597656
aF1.6787238121032715
aF1.6320719718933105
aF1.6911849975585938
aF1.6553380489349365
aF1.5799322128295898
aF1.6200811862945557
aF1.6898372173309326
aF1.6025199890136719
aF1.6962008476257324
aF1.6905410289764404
aF1.5724830627441406
aF1.6391868591308594
aF1.6479480266571045
aF1.6915550231933594
aF1.7057697772979736
aF1.618577003479004
aF1.6281871795654297
aF1.6285958290100098
aF1.5996501445770264
aF1.578552007675171
aF1.5773050785064697
aF1.567823886871338
aF1.5699961185455322
aF1.5680689811706543
aF1.5640270709991455
aF1.573556900024414
aF1.5581281185150146
aF1.5957059860229492
aF1.5643720626831055
aF1.5776350498199463
aF1.5699009895324707
aF1.5769250392913818
aF1.57423996925354
aF1.5756800174713135
aF1.5681490898132324
aF1.5753259658813477
aF1.5716300010681152
aF1.5815739631652832
aF1.9986660480499268
aF2.006981134414673
aF1.9466781616210938
aF1.7731549739837646
aF1.823287010192871
aF1.790503978729248
aF1.779000997543335
aF1.75583815574646
aF1.8115930557250977
aF1.7844030857086182
aF1.7955520153045654
aF1.7554700374603271
aF1.796971082687378
aF1.7798781394958496
aF1.7939691543579102
aF1.6573989391326904
aF1.555408000946045
aF1.5539460182189941
aF1.5545239448547363
aF1.5627810955047607
aF1.5575509071350098
aF1.5699429512023926
aF1.5493969917297363
aF1.5558950901031494
aF1.5488379001617432
aF1.561514139175415
aF1.5624401569366455
aF1.553900957107544
aF1.568861961364746
aF1.564445972442627
aF1.5712101459503174
aF1.5473170280456543
aF1.574713945388794
aF1.5482168197631836
aF1.569606065750122
aF1.5618071556091309
aF1.5656709671020508
aF1.5625731945037842
aF1.558439016342163
aF1.5765609741210938
aF1.56181001663208
aF1.5536401271820068
aF1.5515940189361572
aF1.5604920387268066
aF1.5591058731079102
aF1.5574350357055664
aF1.557507038116455
aF1.563310146331787
aF1.5542628765106201
aF1.5594019889831543
a.