(lp0
F2.2197139263153076
aF1.5779268741607666
aF1.5628070831298828
aF1.5604898929595947
aF1.5592188835144043
aF1.5594217777252197
aF1.6376779079437256
aF1.6702260971069336
aF1.6669139862060547
aF1.671356201171875
aF1.655635118484497
aF1.665661096572876
aF1.6516709327697754
aF1.6721420288085938
aF1.660290002822876
aF1.6586999893188477
aF1.6565661430358887
aF1.6613578796386719
aF1.7276248931884766
aF1.7552058696746826
aF1.7226181030273438
aF1.7438299655914307
aF1.7424077987670898
aF1.7246980667114258
aF1.7414228916168213
aF1.75974702835083
aF1.7384381294250488
aF1.752885103225708
aF1.751952886581421
aF1.7349228858947754
aF1.7435309886932373
aF1.7733139991760254
aF1.849027156829834
aF2.0244929790496826
aF2.043133020401001
aF2.0482378005981445
aF2.3615729808807373
aF2.129905939102173
aF2.5549569129943848
aF3.37349009513855
aF4.142268896102905
aF2.341012954711914
aF3.6494858264923096
aF2.860452175140381
aF2.7079100608825684
aF2.6278340816497803
aF4.242290019989014
aF2.6573948860168457
aF5.407867908477783
aF4.2623820304870605
aF3.4534308910369873
aF2.2159957885742188
aF2.025132894515991
aF1.9562828540802002
aF1.9667799472808838
aF2.1805338859558105
aF4.273820161819458
aF4.832223176956177
aF3.7350361347198486
aF2.8840019702911377
aF4.090441942214966
aF3.6290249824523926
aF2.6767940521240234
aF3.441401958465576
aF4.1009790897369385
aF3.587536096572876
aF2.087459087371826
aF2.1843149662017822
aF2.0102128982543945
aF2.1918869018554688
aF2.1528279781341553
aF2.0209619998931885
aF2.115450143814087
aF2.052225112915039
aF2.0530128479003906
aF2.0473949909210205
aF2.089488983154297
aF2.1494698524475098
aF2.1135499477386475
aF2.087169885635376
aF1.9781510829925537
aF2.2571001052856445
aF1.9640541076660156
aF1.9572038650512695
aF2.0143110752105713
aF2.03609299659729
aF2.0414769649505615
aF1.9927558898925781
aF2.028109073638916
aF2.0199358463287354
aF2.0697150230407715
aF2.024322986602783
aF2.0574400424957275
aF2.40122389793396
aF4.119295120239258
aF3.332174062728882
aF1.927565097808838
aF1.9392318725585938
aF1.965853214263916
aF1.9549100399017334
aF1.952009916305542
aF1.9483602046966553
aF1.976045846939087
aF1.942044973373413
aF1.959557056427002
aF1.958806037902832
aF1.9532890319824219
aF1.9544098377227783
aF3.5182909965515137
aF2.917296886444092
aF3.4288628101348877
aF2.967458963394165
aF3.3255929946899414
aF2.800652027130127
aF3.3102729320526123
aF2.9421191215515137
aF3.3287599086761475
aF3.0159871578216553
aF3.2256901264190674
aF2.7718050479888916
aF3.275399923324585
aF2.7852189540863037
aF3.1931569576263428
aF3.1054270267486572
aF3.1134800910949707
aF2.810209035873413
aF3.3123631477355957
aF2.6192920207977295
aF3.227452039718628
aF2.9913740158081055
aF3.274822950363159
aF2.823200225830078
aF3.1995460987091064
aF2.9409871101379395
aF3.4358229637145996
aF2.860447883605957
aF3.4084157943725586
aF2.8947620391845703
aF3.3095791339874268
aF3.129625082015991
aF3.3235039710998535
aF1.9873600006103516
aF2.01247501373291
aF2.023712158203125
aF2.030974864959717
aF2.0485119819641113
aF2.0314478874206543
aF2.007175922393799
aF3.3406760692596436
aF2.8566360473632812
aF3.1603541374206543
aF2.887586832046509
aF3.5263681411743164
aF3.0241801738739014
aF3.0979959964752197
aF2.5857038497924805
aF2.7244420051574707
aF2.520444869995117
aF2.719698905944824
aF2.6184911727905273
aF2.7013580799102783
aF2.810708999633789
aF3.1605241298675537
aF2.9515957832336426
aF3.419835090637207
aF3.0940170288085938
aF3.29783296585083
aF3.1101341247558594
aF3.2559590339660645
aF3.287964105606079
aF3.4602129459381104
aF3.014341115951538
aF2.043489933013916
aF2.9809491634368896
aF1.9577398300170898
aF1.9326491355895996
aF1.9657690525054932
aF1.942755937576294
aF1.9695141315460205
aF1.9347820281982422
aF2.0434730052948
aF2.0127170085906982
aF2.047913074493408
aF2.0449748039245605
aF2.0244719982147217
aF2.042104959487915
aF2.0515918731689453
aF2.0132079124450684
aF2.043001890182495
aF3.1493031978607178
aF2.2240519523620605
aF2.0576817989349365
aF2.033080816268921
aF2.0045931339263916
aF2.024279832839966
aF2.037569999694824
aF2.0323259830474854
aF1.9131059646606445
aF2.0062639713287354
aF2.0368847846984863
aF2.033092975616455
aF2.0268280506134033
aF2.03045392036438
aF2.02301287651062
aF2.0106678009033203
aF2.022153854370117
aF2.0289700031280518
aF2.026556968688965
aF2.0192580223083496
aF2.0466179847717285
aF2.0364980697631836
aF2.022390842437744
aF2.023653984069824
aF2.0178561210632324
aF2.0330710411071777
aF2.016957998275757
aF2.022834062576294
aF2.0042500495910645
aF1.9596319198608398
aF1.8266088962554932
aF1.8188660144805908
aF1.8026869297027588
aF1.8374888896942139
aF1.8307478427886963
aF1.8175690174102783
aF1.8212440013885498
aF1.8285949230194092
aF1.8050508499145508
aF1.8143219947814941
aF1.8033270835876465
aF1.849323034286499
a.