(lp0
F0.5816669464111328
aF0.582211971282959
aF0.5823090076446533
aF0.5830509662628174
aF0.5820391178131104
aF0.5820960998535156
aF0.5811269283294678
aF0.5831339359283447
aF0.5817739963531494
aF0.5824730396270752
aF0.5807008743286133
aF0.5819699764251709
aF0.5803370475769043
aF0.5829899311065674
aF0.59427809715271
aF0.5826840400695801
aF0.5807681083679199
aF0.5824398994445801
aF0.5801868438720703
aF0.5819590091705322
aF0.5807020664215088
aF0.5823681354522705
aF0.582258939743042
aF0.5820491313934326
aF0.5803430080413818
aF0.5939409732818604
aF0.5810480117797852
aF0.5816879272460938
aF0.5817821025848389
aF0.5820128917694092
aF0.5813050270080566
aF0.5822749137878418
aF0.5813560485839844
aF0.5819740295410156
aF0.5807399749755859
aF0.5829050540924072
aF0.5929198265075684
aF0.5823409557342529
aF0.5816340446472168
aF0.5824329853057861
aF0.5801100730895996
aF0.5815181732177734
aF0.5817232131958008
aF0.5823571681976318
aF0.5800261497497559
aF0.5817599296569824
aF0.5821130275726318
aF0.5939900875091553
aF0.5818140506744385
aF0.5817861557006836
aF0.5814721584320068
aF0.5823168754577637
aF0.5805158615112305
aF0.5808908939361572
aF0.5805530548095703
aF0.5829060077667236
aF0.5823779106140137
aF0.5831921100616455
aF0.5937259197235107
aF0.5839600563049316
aF0.5819108486175537
aF0.5833230018615723
aF0.5822949409484863
aF0.5833830833435059
aF0.5818579196929932
aF0.5833110809326172
aF0.5819258689880371
aF0.5828118324279785
aF0.5813109874725342
aF0.5951859951019287
aF0.5834660530090332
aF0.5830729007720947
aF0.5827980041503906
aF0.5835680961608887
aF0.5811760425567627
aF0.5834560394287109
aF0.5814628601074219
aF0.5840568542480469
aF0.5828399658203125
aF0.5831630229949951
aF0.5929639339447021
aF0.5836901664733887
aF0.5817389488220215
aF0.5831339359283447
aF0.5820670127868652
aF0.5832469463348389
aF0.5830879211425781
aF0.5837340354919434
aF0.582817792892456
aF0.582899808883667
aF0.5812399387359619
aF0.5944809913635254
aF0.5823409557342529
aF0.5836849212646484
aF0.5826189517974854
aF0.5830259323120117
aF0.5836079120635986
aF0.5822281837463379
aF0.5819809436798096
aF0.5837318897247314
aF0.5821020603179932
aF0.5826261043548584
aF0.5927331447601318
aF0.5835471153259277
aF0.5820159912109375
aF0.5837969779968262
aF0.5817050933837891
aF0.580456018447876
aF0.5801889896392822
aF0.5816950798034668
aF0.5814099311828613
aF0.5817520618438721
aF0.5806338787078857
aF0.5919411182403564
aF0.5796759128570557
aF0.5823419094085693
aF0.5803899765014648
aF0.5811898708343506
aF0.5810091495513916
aF0.5804169178009033
aF0.5803470611572266
aF0.5807449817657471
aF0.5806059837341309
aF0.5838408470153809
aF0.58732008934021
a.