(lp0
F8.652613878250122
aF6.5431599617004395
aF6.527551889419556
aF6.568333148956299
aF6.526752948760986
aF6.564173936843872
aF6.520308017730713
aF6.57007098197937
aF6.523850917816162
aF6.555199861526489
aF6.517461061477661
aF6.530344009399414
aF6.47948694229126
aF6.516232967376709
aF6.476530075073242
aF6.495613098144531
aF6.475468158721924
aF6.505460023880005
aF6.476786136627197
aF6.504205942153931
aF6.476144075393677
aF6.511509895324707
aF6.481571912765503
aF6.509176015853882
aF6.478715181350708
aF6.551202058792114
aF6.479383945465088
aF6.506135940551758
aF6.476481914520264
aF6.541005849838257
aF6.478090047836304
aF6.535929918289185
aF6.4750590324401855
aF6.512228965759277
aF6.477382183074951
aF6.512757778167725
aF6.475392818450928
aF6.50832200050354
aF6.475797891616821
aF6.517904043197632
aF6.526087045669556
aF6.647860765457153
aF6.520870923995972
aF6.552774906158447
aF6.524765968322754
aF6.69464898109436
aF6.517830848693848
aF6.562628984451294
aF6.519001007080078
aF6.650688886642456
aF6.516233205795288
aF6.572641134262085
aF6.52148699760437
aF6.632715940475464
aF6.517790079116821
aF6.551286935806274
aF6.518821954727173
aF6.596422910690308
aF6.51933217048645
aF6.5433409214019775
aF6.520211935043335
aF6.5901689529418945
aF6.524593114852905
aF6.57751202583313
aF6.5229010581970215
aF6.60348105430603
aF6.525184869766235
aF6.614045858383179
aF6.519833087921143
aF6.58188796043396
aF6.520424127578735
aF6.6107659339904785
aF6.51814603805542
aF6.585409879684448
aF6.525901794433594
aF6.589562892913818
aF6.519420862197876
aF6.5701611042022705
aF6.521615028381348
aF6.5750250816345215
aF6.525000095367432
aF6.562579870223999
aF6.5220160484313965
aF6.577884197235107
aF6.523677825927734
aF6.552392959594727
aF6.5201451778411865
aF6.598610877990723
aF6.519690990447998
aF6.572908163070679
aF6.526576042175293
aF6.5901501178741455
aF6.5240771770477295
aF6.53196907043457
aF6.518622875213623
aF6.551954030990601
aF6.522414922714233
aF6.550632953643799
aF6.523162841796875
aF6.518341064453125
aF6.519026041030884
aF6.530521869659424
aF6.522386074066162
aF6.523375988006592
aF6.518186092376709
aF6.5439980030059814
aF6.519243955612183
aF6.555583953857422
aF6.523252010345459
aF6.535742998123169
aF6.520688056945801
aF6.571687936782837
aF6.521928071975708
aF6.538121938705444
aF6.520956039428711
aF6.571081876754761
aF6.521949052810669
aF6.51220703125
aF6.520153045654297
aF6.562888860702515
aF6.526500940322876
aF6.491302967071533
aF6.520490884780884
aF6.568058013916016
aF6.525143146514893
a.