(lp0
F5.48441481590271
aF4.009537935256958
aF4.001675128936768
aF3.993109941482544
aF3.9910879135131836
aF3.990654945373535
aF3.9841761589050293
aF3.9913220405578613
aF3.9797940254211426
aF3.9917190074920654
aF3.982222080230713
aF3.9893929958343506
aF3.9807698726654053
aF3.9905548095703125
aF3.98276686668396
aF3.987504005432129
aF3.982403039932251
aF3.9875810146331787
aF3.980681896209717
aF3.987563133239746
aF3.9813930988311768
aF3.9919040203094482
aF3.9790501594543457
aF3.99068284034729
aF3.970789909362793
aF3.9832711219787598
aF3.9764678478240967
aF3.9933419227600098
aF3.979335069656372
aF3.9794390201568604
aF3.9759531021118164
aF3.977252960205078
aF3.974050998687744
aF3.9753220081329346
aF3.966547966003418
aF3.96635103225708
aF3.9690258502960205
aF3.9652369022369385
aF3.968385934829712
aF3.963850975036621
aF3.968395948410034
aF3.958652973175049
aF3.965068817138672
aF3.966480016708374
aF3.9677398204803467
aF3.961483955383301
aF3.967890977859497
aF3.9648590087890625
aF3.9671149253845215
aF3.9597229957580566
aF3.9682888984680176
aF3.9760191440582275
aF3.966546058654785
aF3.962477207183838
aF3.9672250747680664
aF3.9617230892181396
aF3.965669870376587
aF3.961617946624756
aF3.929263114929199
aF3.929503917694092
aF3.9227728843688965
aF3.915346145629883
aF3.918058156967163
aF3.915347099304199
aF3.9192090034484863
aF3.9173948764801025
aF3.9180171489715576
aF3.9151110649108887
aF3.918610095977783
aF3.9155349731445312
aF3.9188029766082764
aF3.9165661334991455
aF3.9205751419067383
aF3.9145920276641846
aF3.918192148208618
aF3.9143319129943848
aF3.917412042617798
aF3.9141409397125244
aF3.918365001678467
aF3.914703845977783
aF3.9167211055755615
aF3.9142050743103027
aF3.919347047805786
aF3.9166300296783447
aF3.917526960372925
aF3.9165639877319336
aF3.917591094970703
aF3.917987108230591
aF3.9181129932403564
aF3.9156241416931152
aF3.9184131622314453
aF3.915102005004883
aF3.9170589447021484
aF3.913888931274414
aF3.92107892036438
aF3.9150819778442383
aF3.9169631004333496
aF3.913630962371826
aF3.91776704788208
aF3.917996883392334
aF3.918152093887329
aF3.914741039276123
aF3.9201228618621826
aF3.915058135986328
aF3.916461944580078
aF3.9160828590393066
aF3.9178829193115234
aF3.916195869445801
aF3.9207980632781982
aF3.9198458194732666
aF3.920806884765625
aF3.918797016143799
aF3.920536994934082
aF3.916363000869751
aF3.920527935028076
aF3.9154880046844482
aF3.920680046081543
aF3.9425230026245117
aF3.953028917312622
aF3.9539051055908203
aF3.9550468921661377
aF3.949347972869873
aF3.9545087814331055
aF3.9537160396575928
aF3.9563148021698
a.