(lp0
F3.6397628784179688
aF2.8820931911468506
aF2.88063383102417
aF2.8822171688079834
aF2.8764829635620117
aF2.868751049041748
aF2.8679840564727783
aF2.8692870140075684
aF2.86765193939209
aF2.867861032485962
aF2.868413209915161
aF2.867919921875
aF2.8674190044403076
aF2.8676459789276123
aF2.8687760829925537
aF2.867938995361328
aF2.8680801391601562
aF2.872152805328369
aF2.867051124572754
aF2.8683550357818604
aF2.868618965148926
aF2.867563009262085
aF2.866931915283203
aF2.8675360679626465
aF2.86694598197937
aF2.868824005126953
aF2.8671939373016357
aF2.868518114089966
aF2.866321086883545
aF2.8672049045562744
aF2.8721160888671875
aF2.865525007247925
aF2.864377975463867
aF2.8706090450286865
aF2.863304853439331
aF2.8639490604400635
aF2.86338210105896
aF2.8652448654174805
aF2.862945079803467
aF2.863676071166992
aF2.8664050102233887
aF2.8632938861846924
aF2.8624110221862793
aF2.8646929264068604
aF2.861461877822876
aF2.8616890907287598
aF2.8620879650115967
aF2.8599979877471924
aF2.8345818519592285
aF2.858675956726074
aF2.8369040489196777
aF2.8580269813537598
aF2.8346872329711914
aF2.858522891998291
aF2.834890127182007
aF2.8580338954925537
aF2.8360350131988525
aF2.857034921646118
aF2.8350658416748047
aF2.858309030532837
aF2.83503794670105
aF2.8564579486846924
aF2.835052967071533
aF2.8570761680603027
aF2.834846019744873
aF2.857357978820801
aF2.836061954498291
aF2.8570380210876465
aF2.83489990234375
aF2.8575921058654785
aF2.8356339931488037
aF2.857103109359741
aF2.8348450660705566
aF2.8570010662078857
aF2.8354179859161377
aF2.8577358722686768
aF2.83606219291687
aF2.8565709590911865
aF2.835273027420044
aF2.8570778369903564
aF2.8345580101013184
aF2.8570079803466797
aF2.8351240158081055
aF2.856837034225464
aF2.8350019454956055
aF2.8569159507751465
aF2.835669994354248
aF2.856938123703003
aF2.834758996963501
aF2.8585009574890137
aF2.8349111080169678
aF2.8575358390808105
aF2.834773063659668
aF2.8564670085906982
aF2.835447072982788
aF2.8567190170288086
aF2.835387945175171
aF2.8575639724731445
aF2.835239887237549
aF2.857018232345581
aF2.8345119953155518
aF2.857822895050049
aF2.8349740505218506
aF2.8569860458374023
aF2.8351728916168213
aF2.8578529357910156
aF2.8350329399108887
aF2.855499029159546
aF2.8335249423980713
aF2.8560678958892822
aF2.8335771560668945
aF2.8552329540252686
aF2.8331968784332275
aF2.8560140132904053
aF2.8340749740600586
a.