(lp0
F2.5241639614105225
aF1.774963140487671
aF1.7728300094604492
aF1.7803640365600586
aF1.7916650772094727
aF1.8005549907684326
aF1.7747998237609863
aF1.7899949550628662
aF1.7854740619659424
aF1.7870440483093262
aF1.7855498790740967
aF1.7986278533935547
aF1.7961230278015137
aF1.794658899307251
aF1.7900769710540771
aF1.778311014175415
aF1.775364875793457
aF1.788482904434204
aF1.7821130752563477
aF1.7863869667053223
aF1.8019158840179443
aF1.8106458187103271
aF1.7961030006408691
aF1.8091340065002441
aF1.7822909355163574
aF1.788823127746582
aF1.7959709167480469
aF1.7864570617675781
aF1.8087539672851562
aF1.7923338413238525
aF1.7763919830322266
aF1.779526948928833
aF1.773245096206665
aF1.7896239757537842
aF1.7875170707702637
aF1.780135154724121
aF1.7662749290466309
aF1.778144121170044
aF1.7721068859100342
aF1.7844369411468506
aF1.7839710712432861
aF1.7981619834899902
aF1.7931809425354004
aF1.792341947555542
aF1.7856190204620361
aF1.776904821395874
aF1.7789850234985352
aF1.7793169021606445
aF1.7719249725341797
aF1.80131196975708
aF1.786128044128418
aF1.7979729175567627
aF1.7985079288482666
aF1.8109381198883057
aF1.781054973602295
aF1.7926862239837646
aF1.7895660400390625
aF1.7840349674224854
aF1.795954942703247
aF1.800614833831787
aF1.7960710525512695
aF1.7799968719482422
aF1.8038139343261719
aF1.7827930450439453
aF1.7993791103363037
aF1.7675299644470215
aF1.7709071636199951
aF1.7776741981506348
aF1.7837960720062256
aF1.7988250255584717
aF1.7826929092407227
aF1.7789340019226074
aF1.7734129428863525
aF1.779601812362671
aF1.7200348377227783
aF1.6786808967590332
aF1.6586229801177979
aF1.6609840393066406
aF1.670624017715454
aF1.6631178855895996
aF1.6540050506591797
aF1.6490299701690674
aF1.62860107421875
aF1.6375610828399658
aF1.6391208171844482
aF1.6320509910583496
aF1.641305923461914
aF1.6276578903198242
aF1.6248328685760498
aF1.6479229927062988
aF1.6254780292510986
aF1.6311581134796143
aF1.6417500972747803
aF1.6295340061187744
aF1.6498630046844482
aF1.6763689517974854
aF1.6140410900115967
aF1.6500420570373535
aF1.6245172023773193
aF1.6307458877563477
aF1.6224279403686523
aF1.6185531616210938
aF1.6169250011444092
aF1.631864070892334
aF1.6160039901733398
aF1.6185109615325928
aF1.6238059997558594
aF1.6216681003570557
aF1.618488073348999
aF1.6273829936981201
aF1.618988037109375
aF1.6303071975708008
aF1.6167829036712646
aF1.6187360286712646
aF1.626725196838379
aF1.6234569549560547
aF1.6148960590362549
aF1.6296849250793457
aF1.617767095565796
aF1.6208069324493408
aF1.6258161067962646
aF1.6223289966583252
aF1.6279687881469727
aF1.6213648319244385
aF1.6436820030212402
aF1.6295318603515625
aF1.6518080234527588
aF1.6582660675048828
aF1.6679718494415283
aF1.6438701152801514
aF1.7100908756256104
aF1.6447088718414307
aF1.6575229167938232
aF1.6958410739898682
aF1.669605016708374
aF1.6529908180236816
aF1.679664134979248
aF1.675018072128296
aF1.6457040309906006
aF1.6604249477386475
aF1.6622719764709473
aF1.6842410564422607
aF1.6506459712982178
aF1.63173508644104
aF1.6454780101776123
aF1.6645958423614502
aF1.6749029159545898
aF1.6859910488128662
aF1.6385109424591064
aF1.6848158836364746
a.