(lp0
F3.8036890029907227
aF2.895169973373413
aF2.8859851360321045
aF2.8876829147338867
aF2.88621187210083
aF2.8674540519714355
aF2.856518030166626
aF2.855180025100708
aF2.8587141036987305
aF2.8530280590057373
aF2.8536300659179688
aF2.853502035140991
aF2.8540849685668945
aF2.852572202682495
aF2.8539960384368896
aF2.8547630310058594
aF2.8536040782928467
aF2.85276198387146
aF2.855752944946289
aF2.8528430461883545
aF2.8532369136810303
aF2.8554179668426514
aF2.853553056716919
aF2.852691173553467
aF2.8531758785247803
aF2.8564422130584717
aF2.861076831817627
aF2.857036828994751
aF2.8616058826446533
aF2.858363151550293
aF2.861409902572632
aF2.858590841293335
aF2.860943078994751
aF2.857405185699463
aF2.8613851070404053
aF2.8599019050598145
aF2.860592842102051
aF2.8557140827178955
aF2.86388897895813
aF2.8558688163757324
aF2.858682155609131
aF2.8585269451141357
aF2.857940912246704
aF2.8555781841278076
aF2.8580949306488037
aF2.855530023574829
aF2.8581390380859375
aF2.854678153991699
aF2.8552169799804688
aF2.8500118255615234
aF2.8472659587860107
aF2.8501648902893066
aF2.832982063293457
aF2.849699020385742
aF2.8322360515594482
aF2.843848943710327
aF2.8336341381073
aF2.851339101791382
aF2.8333780765533447
aF2.8498010635375977
aF2.8331239223480225
aF2.8490569591522217
aF2.8328590393066406
aF2.8491098880767822
aF2.8329689502716064
aF2.851515054702759
aF2.8334388732910156
aF2.850482940673828
aF2.833345890045166
aF2.8512070178985596
aF2.8328049182891846
aF2.84918212890625
aF2.832504987716675
aF2.847522020339966
aF2.824566125869751
aF2.8484978675842285
aF2.824160099029541
aF2.849148988723755
aF2.8247249126434326
aF2.847054958343506
aF2.8247158527374268
aF2.8483529090881348
aF2.823812961578369
aF2.8477509021759033
aF2.8237481117248535
aF2.8473801612854004
aF2.8231990337371826
aF2.847856044769287
aF2.8246171474456787
aF2.849187135696411
aF2.8327760696411133
aF2.8490140438079834
aF2.8323140144348145
aF2.849285840988159
aF2.8328540325164795
aF2.849648952484131
aF2.832279920578003
aF2.850160837173462
aF2.833390951156616
aF2.84999680519104
aF2.832717180252075
aF2.8492000102996826
aF2.8327760696411133
aF2.8490819931030273
aF2.8319880962371826
aF2.8492488861083984
aF2.8327178955078125
aF2.850069999694824
aF2.8250770568847656
aF2.849745988845825
aF2.824820041656494
aF2.848947048187256
aF2.8242530822753906
aF2.8489139080047607
aF2.824613094329834
a.