(lp0
cnumpy.core.multiarray
scalar
p1
(cnumpy
dtype
p2
(S'f8'
p3
I0
I1
tp4
Rp5
(I3
S'<'
p6
NNNI-1
I-1
I0
tp7
bS'9\xfb\xf0\x19v\x05\xd0?'
p8
tp9
Rp10
ag1
(g5
S'bW\x80\xdck.\xc4?'
p11
tp12
Rp13
ag1
(g5
S'\xf5o\x842z[\xc6?'
p14
tp15
Rp16
ag1
(g5
S'\x0et\xda@\xa7\r\xc4?'
p17
tp18
Rp19
ag1
(g5
S'QFo\xcbZ\x1d\xc3?'
p20
tp21
Rp22
ag1
(g5
S'\xf4\xfd\xd4x\xe9&\xc1?'
p23
tp24
Rp25
a.