(lp0
F2.168682098388672
aF1.7101600170135498
aF1.6791269779205322
aF1.7271111011505127
aF1.6805529594421387
aF1.6650848388671875
aF1.9617340564727783
aF1.9174721240997314
aF1.9091429710388184
aF1.7847330570220947
aF2.088624954223633
aF2.130882978439331
aF1.8784079551696777
aF1.9465899467468262
aF1.85481595993042
aF1.8558218479156494
aF1.8948190212249756
aF1.9418911933898926
aF1.7870981693267822
aF1.8816630840301514
aF1.845999002456665
aF1.8230180740356445
aF1.7987661361694336
aF1.9586589336395264
aF1.917639970779419
aF2.1141340732574463
aF2.168588161468506
aF1.6844580173492432
aF1.6970601081848145
aF1.6901438236236572
aF1.680267095565796
aF1.7639119625091553
aF1.6818621158599854
aF1.7448740005493164
aF1.7210090160369873
aF1.713136911392212
aF1.7410309314727783
aF1.69281005859375
aF1.666856050491333
aF1.68739914894104
aF1.6750149726867676
aF1.7096209526062012
aF1.7318809032440186
aF1.7019281387329102
aF1.6397221088409424
aF1.74916410446167
aF1.6724538803100586
aF1.7317490577697754
aF1.6930980682373047
aF1.6821949481964111
aF1.6863491535186768
aF1.695793867111206
aF1.883450984954834
aF1.8583078384399414
aF1.8841831684112549
aF1.851038932800293
aF1.823503017425537
aF1.8615341186523438
aF2.0698821544647217
aF1.9872651100158691
aF2.1134698390960693
aF1.9792420864105225
aF1.998171091079712
aF1.8437650203704834
aF1.8356530666351318
aF1.9052670001983643
aF1.7645950317382812
aF1.8727309703826904
aF1.9558148384094238
aF1.8116838932037354
a.