(lp0
cnumpy.core.multiarray
scalar
p1
(cnumpy
dtype
p2
(S'f8'
p3
I0
I1
tp4
Rp5
(I3
S'<'
p6
NNNI-1
I-1
I0
tp7
bS'\xd8\x9cw\xa0\x91t\xf9?'
p8
tp9
Rp10
ag1
(g5
S'ibx]\x9cX\xf2?'
p11
tp12
Rp13
ag1
(g5
S'\x0f\x0e\x03+\xc9\xf6\xeb?'
p14
tp15
Rp16
a.