(lp0
F2.177082061767578
aF1.8174948692321777
aF1.8134760856628418
aF1.8051888942718506
aF1.8093559741973877
aF1.8256700038909912
aF1.8118269443511963
aF1.8278429508209229
aF1.8650670051574707
aF1.8968892097473145
aF1.8874578475952148
aF1.8983440399169922
aF1.832948923110962
aF1.900569200515747
aF1.8677821159362793
aF1.8790690898895264
aF1.827989101409912
aF1.8409359455108643
aF2.015078067779541
aF1.9656291007995605
aF1.9970760345458984
aF2.0995090007781982
aF2.018115997314453
aF1.9604899883270264
aF2.097054958343506
aF2.410104990005493
aF2.19732403755188
aF2.6378729343414307
aF2.445617198944092
aF2.4742729663848877
aF2.430840015411377
aF2.4458839893341064
aF2.463942050933838
aF2.495490074157715
aF2.4625420570373535
aF2.439311981201172
aF2.471501111984253
aF2.499685049057007
aF2.4448928833007812
aF2.5380921363830566
aF2.1722540855407715
aF2.226979970932007
aF2.211658000946045
aF2.2051730155944824
aF2.188911199569702
aF2.1967389583587646
aF2.217670202255249
aF2.216958999633789
aF2.199193000793457
aF2.2192981243133545
aF2.181094169616699
aF2.2184841632843018
aF2.2011470794677734
aF2.1866281032562256
aF2.195312023162842
aF2.2184231281280518
aF2.2129509449005127
aF2.202842950820923
aF2.197136878967285
aF2.176147937774658
aF2.218096971511841
aF2.2122139930725098
aF2.163242816925049
aF2.2076919078826904
aF2.1756529808044434
aF2.224656820297241
aF2.190688133239746
aF2.2127599716186523
aF2.1628689765930176
aF2.0940139293670654
aF2.101957082748413
aF2.0740840435028076
aF2.057547092437744
aF2.132750988006592
aF2.0822689533233643
aF2.1797220706939697
aF2.0986149311065674
aF2.0629971027374268
aF2.095521926879883
aF2.17537784576416
aF2.1542370319366455
aF2.0458240509033203
aF2.0201480388641357
aF2.0344619750976562
aF2.283500909805298
aF2.0815470218658447
aF2.0559709072113037
aF2.2423479557037354
aF2.202888011932373
aF2.2265419960021973
aF2.285680055618286
aF2.571857213973999
aF2.0436880588531494
aF2.046586036682129
aF1.9957458972930908
aF2.099898099899292
aF2.204279899597168
aF2.0721302032470703
aF2.022125005722046
aF2.0917460918426514
aF2.035141944885254
aF2.0134220123291016
aF2.0658819675445557
aF2.1131691932678223
aF2.0764598846435547
aF2.166545867919922
aF1.9679968357086182
aF2.331002950668335
aF1.9557700157165527
aF2.1048498153686523
aF2.0643560886383057
aF2.092170000076294
aF2.1368069648742676
aF2.1564009189605713
aF2.097357988357544
aF2.313364028930664
aF2.1412289142608643
aF2.0864768028259277
aF2.2110559940338135
aF2.1154801845550537
aF2.6792850494384766
aF2.0938820838928223
aF2.1465539932250977
aF2.0281810760498047
aF2.0262229442596436
aF2.2473881244659424
aF2.0175909996032715
aF2.182015895843506
aF2.270444869995117
aF2.1486949920654297
aF2.1771090030670166
aF2.20253586769104
aF2.1894431114196777
aF2.339376926422119
aF2.2474098205566406
aF2.2003538608551025
aF2.2589728832244873
aF2.4194140434265137
aF2.258718967437744
aF1.979578971862793
aF2.0078048706054688
aF2.0986721515655518
aF2.0679378509521484
aF2.104834794998169
aF2.0163750648498535
aF2.0397019386291504
aF2.049229860305786
aF2.0175039768218994
aF2.048321008682251
aF1.9855709075927734
aF2.0062179565429688
aF2.58418607711792
aF2.054647922515869
aF2.0929031372070312
aF2.019443988800049
aF2.021523952484131
aF2.0369739532470703
aF2.0593509674072266
aF1.9801688194274902
aF2.0849220752716064
aF2.0449559688568115
aF2.3528101444244385
aF2.2541518211364746
aF2.2309679985046387
aF2.2647628784179688
aF2.0337982177734375
aF2.110935926437378
aF2.216461181640625
aF2.2000739574432373
aF2.337908983230591
aF2.2347490787506104
aF2.137902021408081
aF2.1482810974121094
aF2.094810962677002
aF2.0908820629119873
aF1.9932658672332764
aF2.187614917755127
aF2.0841450691223145
aF2.1229610443115234
aF2.1809918880462646
aF2.218261957168579
aF2.253565788269043
aF2.1574690341949463
aF2.118259906768799
aF2.0715770721435547
aF2.0844039916992188
aF2.1084680557250977
aF2.168332815170288
aF2.0915138721466064
aF1.98093581199646
aF2.0576329231262207
aF2.013737916946411
aF2.0799310207366943
aF2.1236319541931152
aF1.9349370002746582
aF2.1564550399780273
aF1.940575122833252
aF1.9403629302978516
aF1.9119629859924316
aF1.9516479969024658
aF1.9108610153198242
aF1.9410178661346436
aF1.9370520114898682
aF1.9282000064849854
aF1.9126269817352295
aF1.9107990264892578
aF1.9120879173278809
aF1.956686019897461
aF1.9689080715179443
aF1.9776051044464111
aF1.9817869663238525
aF1.9826698303222656
aF1.9705801010131836
aF1.963301181793213
aF1.960927963256836
aF1.972275972366333
aF1.9764530658721924
aF1.9658710956573486
aF1.9947009086608887
aF1.964698076248169
aF1.9612159729003906
aF1.9043209552764893
aF1.9767241477966309
aF1.9665119647979736
aF1.926893949508667
aF1.9592390060424805
aF1.9291410446166992
aF1.9319109916687012
aF1.9679999351501465
aF1.9436430931091309
aF1.9711380004882812
aF1.930866003036499
aF1.91908597946167
aF1.9036569595336914
aF1.9246139526367188
aF1.9275469779968262
aF1.8938298225402832
aF1.8994941711425781
aF1.9479560852050781
aF1.9027760028839111
aF1.9622530937194824
aF1.937842845916748
aF1.9013731479644775
aF1.9172370433807373
aF1.9233860969543457
aF1.918060064315796
aF1.9523639678955078
aF1.8895981311798096
aF1.9016139507293701
aF1.8957738876342773
a.