(lp0
F2.1359381675720215
aF2.119874954223633
aF2.12280011177063
aF2.223958969116211
aF2.3455820083618164
aF2.421370029449463
aF2.3365700244903564
aF2.2477920055389404
aF2.3456380367279053
aF2.1609790325164795
aF2.3376429080963135
aF2.2864978313446045
aF2.133413076400757
aF2.0167300701141357
aF2.020880937576294
aF2.0156729221343994
aF2.0249979496002197
aF2.049478769302368
aF2.0433311462402344
aF2.0391340255737305
aF2.031632900238037
aF2.1262450218200684
a.