(lp0
F2.417633056640625
aF1.730254888534546
aF1.7349050045013428
aF1.7240049839019775
aF1.71956205368042
aF1.7739479541778564
aF1.7506780624389648
aF1.7700059413909912
aF1.747920036315918
aF1.7566349506378174
aF1.7487030029296875
aF1.7786219120025635
aF1.7464709281921387
aF1.7571868896484375
aF1.7480030059814453
aF1.7757658958435059
aF1.7503008842468262
aF1.746901035308838
aF1.727356195449829
aF1.721893072128296
aF1.7325801849365234
aF1.7347679138183594
aF1.7295689582824707
aF1.73390793800354
aF1.731398105621338
aF1.773772954940796
aF1.7614190578460693
aF1.7667131423950195
aF1.7499151229858398
aF1.7938060760498047
aF1.744493007659912
aF1.771765947341919
aF1.7490808963775635
aF1.7752549648284912
aF1.7489869594573975
aF1.769132137298584
aF1.755375862121582
aF1.7611792087554932
aF1.746286153793335
aF1.7626068592071533
aF1.7291359901428223
aF1.7315948009490967
aF1.7209179401397705
aF1.7235760688781738
aF1.7261648178100586
aF1.7341549396514893
aF1.705773115158081
aF1.7447090148925781
aF1.72324800491333
aF1.7388710975646973
a.