(lp0
F2.55869722366333
aF2.0359280109405518
aF2.059899091720581
aF2.0315091609954834
aF2.075132131576538
aF2.047322988510132
aF2.0558578968048096
aF2.045362949371338
aF2.060807943344116
aF2.053161144256592
aF2.1002728939056396
aF2.0723190307617188
aF2.1149959564208984
aF2.0877530574798584
aF2.0995700359344482
aF2.412537097930908
aF2.3525311946868896
aF2.3550360202789307
aF2.4171440601348877
aF2.365746021270752
aF2.3574819564819336
aF2.3451550006866455
aF2.376990795135498
aF2.280287981033325
aF2.3606390953063965
aF2.311414957046509
aF2.413723945617676
aF2.2957489490509033
aF2.3734731674194336
aF2.2942800521850586
aF2.3556010723114014
aF2.2899980545043945
aF2.386584997177124
aF2.337799072265625
aF2.385498046875
aF2.2709109783172607
aF2.4519851207733154
aF2.404939889907837
aF2.4564051628112793
aF2.390576124191284
aF2.4033029079437256
aF2.3552980422973633
aF2.433764934539795
aF2.369959831237793
aF2.0668869018554688
aF2.066781997680664
aF2.3818788528442383
aF2.446830987930298
aF2.4822139739990234
aF2.39056396484375
aF2.5069820880889893
aF2.350325107574463
aF2.0763258934020996
aF2.084995985031128
aF2.092316150665283
aF2.06318998336792
aF2.1257450580596924
aF2.109168767929077
aF2.09895920753479
aF2.031181812286377
aF2.072234869003296
aF2.0439491271972656
aF2.066999912261963
aF2.063570976257324
aF2.0341830253601074
aF2.166990041732788
aF3.2965281009674072
aF3.189931869506836
aF3.438918113708496
aF3.080970048904419
aF3.2619550228118896
aF3.098630905151367
aF3.044318914413452
aF2.5621559619903564
aF2.891895055770874
aF2.386950969696045
aF1.987790822982788
aF2.0136449337005615
aF2.02896785736084
aF1.9760899543762207
aF2.378674030303955
aF2.5689868927001953
aF2.543224811553955
aF2.710753917694092
aF2.530174970626831
aF2.5213301181793213
aF2.722878932952881
aF2.8396670818328857
aF2.5869059562683105
aF2.9717540740966797
aF2.7754859924316406
aF2.7540881633758545
aF3.0146901607513428
aF2.6508870124816895
aF2.687148094177246
aF2.438349962234497
aF2.891561985015869
aF2.3238039016723633
aF2.0716869831085205
aF2.091256856918335
aF2.0551939010620117
aF2.056058883666992
aF2.0180599689483643
aF1.9532129764556885
aF2.0663230419158936
aF1.9995849132537842
aF2.037559986114502
aF1.9452219009399414
aF2.048738956451416
aF2.041126012802124
aF2.007375955581665
aF2.052206039428711
aF2.0338950157165527
aF2.003396987915039
aF2.0712549686431885
a.