(lp0
F1.7791130542755127
aF1.8951148986816406
aF1.8791520595550537
aF1.871480941772461
aF1.8881709575653076
aF1.8803648948669434
aF1.8681418895721436
aF1.8944728374481201
aF1.9198811054229736
aF1.8894331455230713
aF1.7383449077606201
aF1.733048915863037
aF1.709285020828247
aF1.6774280071258545
aF1.7024080753326416
aF1.6958250999450684
aF1.7095699310302734
aF1.7030510902404785
aF1.688708782196045
aF1.6604821681976318
aF1.691283941268921
aF1.6965320110321045
aF1.6955161094665527
aF1.712122917175293
aF1.6922869682312012
aF1.6831068992614746
aF1.7545270919799805
aF1.7032299041748047
aF1.7098979949951172
aF1.7488939762115479
aF1.669813871383667
aF1.6844110488891602
aF1.678429126739502
aF1.68709397315979
aF1.6916248798370361
aF1.7227859497070312
aF1.690636157989502
aF1.697847843170166
aF1.7171680927276611
aF1.7122111320495605
aF1.7225148677825928
aF1.7674059867858887
aF1.7419757843017578
aF1.6959409713745117
aF1.6809718608856201
aF1.7011971473693848
aF1.7220149040222168
aF1.6853229999542236
aF1.7042760848999023
aF1.6949682235717773
aF1.687608003616333
aF1.7036590576171875
aF1.7139689922332764
aF1.698638916015625
aF1.7036769390106201
aF1.7149629592895508
aF1.7049942016601562
aF1.7805719375610352
aF1.7102241516113281
aF1.683142900466919
a.