(lp0
F2.581209897994995
aF1.8169231414794922
aF1.7960491180419922
aF1.9002020359039307
aF1.8680860996246338
aF1.7535879611968994
aF1.7401649951934814
aF1.7878918647766113
aF1.8018031120300293
aF1.7312419414520264
aF1.7540440559387207
aF1.7231030464172363
aF1.771456003189087
aF1.818284034729004
aF1.7568449974060059
aF1.756052017211914
aF1.737861156463623
aF1.8243529796600342
aF1.6904370784759521
aF1.7292759418487549
aF1.6811749935150146
aF1.7681829929351807
aF1.7211620807647705
aF1.7218658924102783
aF1.743894100189209
aF1.754136085510254
aF1.7762479782104492
aF1.7243621349334717
aF1.7304987907409668
aF1.788041114807129
aF1.8752529621124268
aF1.8775739669799805
aF1.76106595993042
aF1.7644340991973877
aF1.748232126235962
aF1.7450010776519775
aF1.7721590995788574
aF1.7313740253448486
aF1.7328569889068604
aF1.7921569347381592
aF1.7421610355377197
aF1.7844281196594238
aF1.7427449226379395
aF1.769118070602417
aF1.8459219932556152
aF2.1711931228637695
aF1.8422198295593262
aF1.770015001296997
aF1.8253839015960693
aF2.2194981575012207
aF1.9907810688018799
aF1.7541558742523193
aF1.7855010032653809
aF1.8248701095581055
aF1.797240972518921
aF1.8296189308166504
aF1.7516019344329834
aF1.7842319011688232
aF1.8129911422729492
aF1.970738172531128
aF2.0095901489257812
aF1.7963759899139404
aF1.8228428363800049
aF1.771914005279541
aF1.8557507991790771
aF1.8075010776519775
aF1.8528800010681152
aF1.7968130111694336
aF1.7237260341644287
aF1.786525011062622
aF1.8479530811309814
aF1.7722010612487793
aF1.8540880680084229
aF1.802150011062622
aF1.8412511348724365
aF1.8396010398864746
aF1.7990748882293701
aF1.6691229343414307
aF1.8382489681243896
aF2.0507709980010986
aF1.9652941226959229
aF2.0204670429229736
aF1.7991669178009033
aF1.7566242218017578
aF1.6961941719055176
aF1.7108280658721924
aF1.6828129291534424
aF1.7290711402893066
aF1.700829029083252
aF1.7196431159973145
aF1.7495129108428955
aF1.811110019683838
aF1.7972331047058105
aF1.7864611148834229
aF1.7457258701324463
aF1.7672209739685059
aF1.7582149505615234
aF1.780817985534668
aF1.7486960887908936
aF1.8207108974456787
aF1.7818610668182373
aF1.7761781215667725
aF1.7523670196533203
aF1.753589153289795
aF1.754194974899292
aF1.7601521015167236
aF1.7341620922088623
aF1.8425569534301758
aF1.753019094467163
aF1.7445950508117676
aF1.8148269653320312
aF1.7753369808197021
aF1.8230040073394775
aF1.759948968887329
aF1.7924039363861084
aF1.757429838180542
aF1.7217020988464355
aF1.7340798377990723
aF1.7115819454193115
aF1.6964101791381836
aF1.7149579524993896
aF1.6966171264648438
aF1.7302651405334473
aF1.7030181884765625
aF1.7042429447174072
aF1.7199409008026123
aF1.7919220924377441
aF1.7699182033538818
aF1.7925879955291748
aF1.7833709716796875
aF1.782762050628662
aF1.7638130187988281
aF1.710744857788086
aF1.693993091583252
aF1.7028088569641113
aF1.6910839080810547
aF1.70210599899292
aF1.7164268493652344
aF1.6933250427246094
aF1.7190539836883545
aF1.7186570167541504
aF1.7984890937805176
aF1.894705057144165
aF1.810338020324707
aF1.8208467960357666
aF1.7594399452209473
aF1.8559260368347168
aF1.8036041259765625
aF1.7719769477844238
aF1.684161901473999
aF1.7009899616241455
aF1.6978609561920166
aF1.71514892578125
aF1.7148830890655518
aF1.7039988040924072
aF1.7123911380767822
aF1.7060480117797852
aF1.7111270427703857
aF1.7238898277282715
aF1.7091269493103027
aF1.6697628498077393
aF1.7937161922454834
aF1.8499150276184082
aF1.802459955215454
aF1.8505070209503174
aF1.7872531414031982
aF1.8548269271850586
aF1.798671007156372
aF1.8430089950561523
aF1.6905829906463623
aF1.707284927368164
aF1.7079439163208008
aF1.7383651733398438
aF1.7394061088562012
aF1.6924171447753906
aF1.6815290451049805
aF1.7431111335754395
aF1.765268087387085
aF1.7106029987335205
aF1.692458152770996
aF1.6764450073242188
aF1.745244026184082
aF1.9479179382324219
aF1.8500471115112305
aF1.8867361545562744
aF1.8306090831756592
aF1.9463260173797607
aF1.8615939617156982
aF1.8793590068817139
aF1.690910816192627
aF1.6934778690338135
aF1.7188949584960938
aF1.7178211212158203
aF1.6917119026184082
aF1.6937239170074463
aF1.726572036743164
aF1.751215934753418
aF1.7331428527832031
aF1.682785987854004
aF1.6881868839263916
a.