(lp0
F7.131590843200684
aF4.88641095161438
aF4.865372896194458
aF5.0972371101379395
aF5.127471923828125
aF5.269094944000244
aF5.153791904449463
aF5.286772012710571
aF5.172482967376709
aF5.232122182846069
aF5.191182851791382
aF5.279851913452148
aF5.185857057571411
aF5.252481937408447
aF5.153025150299072
aF5.232270956039429
aF5.134997844696045
aF5.225329160690308
aF5.207938194274902
aF5.225756883621216
aF5.151249170303345
aF5.2777299880981445
aF5.187145948410034
aF5.26413106918335
aF5.202973127365112
aF5.248617172241211
aF5.159470796585083
aF5.21970009803772
aF5.131982088088989
aF4.817023992538452
aF4.506771087646484
aF4.56756591796875
aF4.477689027786255
aF4.573045015335083
aF4.503761053085327
aF4.5618579387664795
aF4.523638010025024
aF4.665419101715088
aF4.577888011932373
aF4.543486833572388
aF4.558241128921509
aF4.544184923171997
aF4.488120079040527
aF4.591886043548584
aF4.522218942642212
aF4.56964898109436
aF4.492391109466553
aF4.531008958816528
aF4.539859056472778
aF4.619112014770508
aF4.519640922546387
aF4.573629856109619
aF4.5592381954193115
aF4.568211078643799
aF4.441004991531372
aF4.607088088989258
aF4.530003070831299
aF4.436402082443237
aF4.405835151672363
aF4.438839912414551
aF4.403999090194702
aF4.418365955352783
aF4.413527011871338
aF4.418830156326294
aF4.408477067947388
aF4.432005882263184
aF4.408732891082764
aF4.415489912033081
aF4.414139986038208
aF4.416447877883911
aF4.409577131271362
aF4.437961101531982
aF4.406583070755005
aF4.41864800453186
aF4.410852909088135
aF4.42208194732666
aF4.406062841415405
aF4.448323965072632
aF4.438385009765625
aF4.417864084243774
aF4.433748960494995
aF4.447615146636963
aF4.434434175491333
aF4.444855213165283
aF4.4313108921051025
aF4.447365045547485
aF4.432187080383301
aF4.44028902053833
aF4.4286789894104
aF4.424107074737549
aF4.4224958419799805
aF4.4336841106414795
aF4.423269033432007
aF4.4315619468688965
aF4.426655054092407
aF4.4289000034332275
aF4.422539949417114
aF4.433573007583618
aF4.427361965179443
aF4.427430868148804
aF4.421980142593384
aF4.416072845458984
aF4.412007093429565
aF4.415525913238525
aF4.41389799118042
aF4.419228792190552
aF4.412976980209351
aF4.362076044082642
aF4.3609020709991455
aF4.364419937133789
aF4.399579048156738
aF4.410794973373413
aF4.399968147277832
aF4.407917022705078
aF4.399615049362183
aF4.409573078155518
aF4.399665117263794
aF4.407449007034302
aF4.400562047958374
aF4.406991958618164
aF4.3997790813446045
aF4.409765005111694
aF4.399341106414795
aF4.405479907989502
aF4.4001970291137695
aF4.404177188873291
aF4.40065598487854
aF4.3737499713897705
aF4.389123916625977
aF4.373353004455566
aF4.38967490196228
aF4.411909818649292
aF4.38912296295166
aF4.412712097167969
aF4.3889851570129395
aF4.406696081161499
aF4.389846086502075
aF4.4048309326171875
aF4.390843152999878
aF4.407609939575195
aF4.389586925506592
aF4.4128289222717285
aF4.3894360065460205
aF4.40824294090271
aF4.390467166900635
aF4.413718938827515
aF4.389822959899902
aF4.408469200134277
aF4.3906331062316895
aF4.3737101554870605
aF4.3695900440216064
aF4.377313137054443
aF4.3693060874938965
aF4.378150939941406
aF4.36965799331665
aF4.376579999923706
aF4.369692802429199
aF4.380671977996826
aF4.370019912719727
aF4.394858121871948
aF4.369314908981323
aF4.377623081207275
aF4.370871067047119
aF4.378530979156494
aF4.37075400352478
aF4.380981922149658
aF4.3700220584869385
aF4.383584976196289
aF4.3689069747924805
aF4.3827760219573975
aF4.369998931884766
aF4.3778440952301025
aF4.370018005371094
aF4.380660057067871
aF4.368268966674805
aF4.380013942718506
aF4.368206024169922
aF4.379656791687012
aF4.370136976242065
aF4.383044958114624
aF4.3691511154174805
aF4.385499000549316
aF4.369214057922363
aF4.372980117797852
aF4.369751930236816
aF4.377264022827148
aF4.3689961433410645
aF4.393606901168823
aF4.368942022323608
aF4.374104976654053
aF4.369354963302612
aF4.379670858383179
aF4.368501901626587
aF4.390655040740967
aF4.3692100048065186
aF4.376927852630615
aF4.3687498569488525
aF4.3775269985198975
aF4.369143009185791
aF4.3883490562438965
aF4.367969989776611
aF4.3819050788879395
aF4.405411005020142
aF4.416624069213867
aF4.406738996505737
aF4.410761117935181
aF4.405555009841919
aF4.417979955673218
aF4.405482053756714
aF4.416069984436035
aF4.405865907669067
aF4.419354200363159
aF4.404983997344971
aF4.415356159210205
aF4.404563903808594
aF4.41232705116272
aF4.404861927032471
aF4.4182538986206055
aF4.407805919647217
aF4.417744159698486
aF4.404783010482788
aF4.4360880851745605
aF4.4049201011657715
aF4.419765949249268
aF4.406239986419678
aF4.421949863433838
aF4.4056007862091064
aF4.415467977523804
aF4.405590057373047
aF4.419256925582886
aF4.406267881393433
aF4.414964914321899
aF4.404784917831421
aF4.408549070358276
aF4.3681559562683105
aF4.375237941741943
aF4.367674112319946
aF4.38095498085022
aF4.367941856384277
aF4.3739259243011475
aF4.36825704574585
aF4.381853103637695
aF4.3677239418029785
aF4.383100986480713
aF4.368865966796875
aF4.37355899810791
aF4.368504047393799
aF4.377570152282715
aF4.368238925933838
aF4.374034881591797
a.