(lp0
F5.882144212722778
aF4.079660177230835
aF5.121610879898071
aF4.468279123306274
aF5.7386510372161865
aF5.3080079555511475
aF5.885499954223633
aF5.3559730052948
aF5.813529014587402
aF5.195826053619385
aF5.644034147262573
aF5.209871053695679
aF5.670185089111328
aF5.181900978088379
aF5.657394886016846
aF5.19942307472229
aF5.619942903518677
aF5.498702049255371
aF6.145600080490112
aF5.458468914031982
aF5.689228057861328
aF4.672066926956177
aF5.136434078216553
aF4.833019971847534
aF4.879202127456665
aF5.196353912353516
aF4.16375994682312
aF4.008004903793335
aF4.024177074432373
aF4.030526876449585
aF4.043621063232422
aF4.262955188751221
aF4.239066123962402
aF4.1708269119262695
aF4.077057123184204
aF4.079838991165161
aF4.151834011077881
aF4.692528009414673
aF4.934636116027832
aF4.368543863296509
aF3.9813270568847656
aF5.506220102310181
aF4.826040029525757
aF4.737058162689209
aF4.865010023117065
aF5.263274908065796
aF5.875866889953613
aF5.058290958404541
aF4.9789910316467285
aF4.660472869873047
aF4.846792936325073
aF4.56545615196228
aF5.045152902603149
aF4.266067028045654
aF4.221435070037842
aF4.130799055099487
aF4.257649898529053
aF4.3167500495910645
aF4.2230119705200195
aF4.418077230453491
aF4.08095908164978
aF4.295074939727783
aF4.112106084823608
aF4.124840021133423
aF4.865294933319092
aF4.896679878234863
aF5.466109991073608
aF4.676551103591919
aF4.8331849575042725
aF4.80638313293457
aF5.3490149974823
aF4.418967008590698
aF5.022377014160156
aF4.500777006149292
aF5.038839101791382
aF4.462023973464966
aF4.708722829818726
aF4.823724985122681
aF5.077686071395874
aF4.720066070556641
aF4.035827159881592
aF3.9537160396575928
aF4.0819268226623535
aF3.936434030532837
aF4.095571041107178
aF3.9285571575164795
aF4.0918591022491455
aF4.005934000015259
aF4.030613899230957
aF3.947453022003174
aF4.080276012420654
aF3.978224992752075
aF4.074181079864502
aF3.961439847946167
aF4.131839990615845
aF4.006565809249878
aF4.097934007644653
aF3.9845402240753174
aF4.109843015670776
aF3.9534671306610107
aF4.0949249267578125
aF3.968329906463623
aF4.060359954833984
aF3.9684059619903564
aF4.094050884246826
aF3.950208902359009
aF3.863618850708008
aF3.3836328983306885
aF3.333405017852783
aF3.339571952819824
aF3.3960719108581543
aF3.417572021484375
aF3.397829055786133
aF3.396921157836914
aF3.371299982070923
aF3.3718550205230713
aF3.3725759983062744
aF3.3697071075439453
aF3.3984739780426025
aF3.3437130451202393
aF3.3400001525878906
aF3.3545279502868652
aF3.342564821243286
aF3.368035078048706
aF3.370842933654785
aF3.405198097229004
aF3.361003875732422
aF3.355292797088623
aF3.288153886795044
aF3.324920892715454
aF3.293621063232422
aF3.354004144668579
aF3.295907974243164
aF3.3030569553375244
aF3.3112359046936035
aF3.28828501701355
aF3.280799150466919
aF3.288909912109375
aF3.2711119651794434
aF3.2735800743103027
aF3.2742819786071777
aF3.2614550590515137
aF3.26070499420166
aF3.2649989128112793
aF3.260390043258667
aF3.26147198677063
aF3.2621889114379883
aF3.2622220516204834
aF3.260284900665283
aF3.26259708404541
aF3.2576451301574707
aF3.260011911392212
aF3.2594919204711914
aF3.2580389976501465
aF3.256934881210327
aF3.2584190368652344
aF3.25753116607666
aF3.2581851482391357
aF3.2561559677124023
aF3.257492780685425
aF3.2588720321655273
aF3.2566800117492676
aF3.2555079460144043
aF3.2631189823150635
aF3.25475811958313
aF3.257697105407715
aF3.2576491832733154
aF3.2547168731689453
aF3.2526910305023193
aF3.2592899799346924
aF3.256103038787842
aF3.256736993789673
aF3.2578539848327637
aF3.2563230991363525
aF3.2567999362945557
aF3.257587194442749
aF3.253692865371704
aF3.256791114807129
aF3.2488651275634766
aF3.240063190460205
aF3.2415919303894043
aF3.2392148971557617
aF3.241460084915161
aF3.2419281005859375
aF3.2400100231170654
aF3.2410058975219727
aF3.2417099475860596
aF3.242047071456909
aF3.240339994430542
aF3.2396769523620605
aF3.2410759925842285
aF3.2412431240081787
aF3.2443840503692627
aF3.238701105117798
aF3.241241931915283
aF3.240046977996826
aF3.2405319213867188
aF3.23917293548584
aF3.241067886352539
aF3.2399349212646484
aF3.2411839962005615
aF3.243863821029663
aF3.2451729774475098
aF3.240600109100342
aF3.244323968887329
aF3.2393510341644287
aF3.2412538528442383
aF3.2403831481933594
aF3.241238832473755
aF3.240664005279541
aF3.241415023803711
aF3.2415621280670166
aF3.2401111125946045
aF3.2408339977264404
aF3.2396979331970215
aF3.240671157836914
aF3.2407519817352295
aF3.2407310009002686
aF3.2411739826202393
aF3.2430009841918945
aF3.2404048442840576
aF3.24029803276062
aF3.2404160499572754
aF3.2414581775665283
aF3.240946054458618
aF3.2429819107055664
aF3.240623950958252
aF3.242264986038208
aF3.243569850921631
aF3.239755868911743
aF3.2415668964385986
aF3.2397191524505615
aF3.239643096923828
aF3.241338014602661
aF3.2374000549316406
aF3.237049102783203
aF3.2371859550476074
aF3.238917112350464
aF3.23807692527771
aF3.2437400817871094
aF3.236881971359253
aF3.236116886138916
aF3.23818302154541
aF3.2371490001678467
aF3.236525058746338
aF3.236873149871826
aF3.2391810417175293
aF3.236464023590088
aF3.23786997795105
aF3.238818883895874
a.