(lp0
F2.431676149368286
aF1.9733850955963135
aF1.9664218425750732
aF1.979952096939087
aF1.968189001083374
aF1.986548900604248
aF1.9708750247955322
aF2.0718679428100586
aF2.108643054962158
aF2.26668381690979
aF2.2380340099334717
aF2.276379108428955
aF2.0826399326324463
aF2.04054594039917
aF2.037229061126709
aF2.0468430519104004
aF1.979935884475708
aF2.342878818511963
aF2.050584077835083
aF1.9844820499420166
aF2.013619899749756
aF1.965528964996338
aF1.9742748737335205
aF1.9526958465576172
aF1.9572479724884033
aF1.9616081714630127
aF1.970750093460083
aF1.9795050621032715
aF1.9800951480865479
aF1.9657440185546875
a.