(lp0
F2.286250114440918
aF1.8982210159301758
aF1.8869729042053223
aF1.9304759502410889
aF1.9021809101104736
aF1.8987460136413574
aF1.9319391250610352
aF2.0432770252227783
aF1.9423620700836182
aF2.066767930984497
aF2.0251400470733643
aF2.0644619464874268
aF2.0338258743286133
aF2.008131980895996
aF2.0424740314483643
aF1.998363971710205
aF2.0616180896759033
aF2.050222158432007
aF2.060093879699707
aF2.1692521572113037
aF1.968109130859375
aF2.0254569053649902
aF1.991096019744873
aF2.029115915298462
aF2.086580991744995
aF2.1756670475006104
aF2.03664493560791
aF2.155841112136841
aF2.066944122314453
aF1.9988439083099365
aF2.022742986679077
aF2.1652660369873047
aF2.022444009780884
aF1.9863290786743164
aF2.0549612045288086
aF1.9909451007843018
aF2.0549099445343018
aF2.059988021850586
aF2.0422980785369873
aF2.047585964202881
aF1.973695993423462
aF1.9889321327209473
aF2.02626895904541
aF2.0528430938720703
aF2.045081853866577
aF2.1449310779571533
aF2.00469708442688
aF2.115622043609619
aF2.1145248413085938
aF2.1372921466827393
aF2.113651990890503
aF1.951681137084961
aF2.006510019302368
aF2.0737249851226807
aF2.0358190536499023
aF1.9663140773773193
aF2.026700019836426
aF1.9650189876556396
aF1.9321069717407227
aF1.9690661430358887
aF2.0223920345306396
aF1.9582359790802002
aF1.9696550369262695
aF1.9727180004119873
aF1.9654369354248047
aF2.002492904663086
aF1.9686410427093506
aF1.941192865371704
aF1.960791826248169
aF1.9917168617248535
aF1.99387788772583
aF1.9565489292144775
aF1.9872589111328125
aF1.9321610927581787
aF1.9621710777282715
aF1.9817960262298584
aF1.9597342014312744
aF1.931339979171753
aF2.0170910358428955
aF2.030855178833008
aF2.164105176925659
aF2.1399569511413574
aF1.9377479553222656
aF1.9757990837097168
aF1.9395561218261719
aF2.0243749618530273
aF2.0643811225891113
aF2.0399179458618164
aF1.9793989658355713
aF1.9786098003387451
aF2.089339017868042
aF1.989527940750122
aF2.0712289810180664
aF2.0938360691070557
aF2.0349888801574707
aF2.092379093170166
aF2.0877020359039307
aF2.042120933532715
aF2.0046000480651855
aF2.153347969055176
aF1.9718780517578125
aF2.0397250652313232
aF2.1268301010131836
aF2.074773073196411
aF2.0608720779418945
aF2.1307919025421143
aF2.0873019695281982
aF2.1428720951080322
aF1.9329779148101807
aF1.9935190677642822
aF1.9360589981079102
aF1.9645729064941406
aF1.9732818603515625
aF1.9569730758666992
aF1.9160799980163574
aF2.03582501411438
aF1.9818460941314697
aF1.9679620265960693
aF1.9846279621124268
aF1.9797439575195312
aF2.0033771991729736
aF1.9973549842834473
aF1.9388511180877686
aF2.0228700637817383
aF1.9754328727722168
aF1.9961731433868408
aF1.930832862854004
aF1.9976630210876465
aF1.9266510009765625
aF1.9522619247436523
aF1.9869639873504639
aF1.9955730438232422
aF2.0167741775512695
aF2.087226152420044
aF2.130873918533325
aF1.9824090003967285
aF1.9146640300750732
aF1.9603018760681152
aF1.978855848312378
aF1.996312141418457
aF1.93943190574646
aF1.9771511554718018
aF1.9384570121765137
aF1.9748661518096924
aF1.9860260486602783
aF1.9419429302215576
aF1.9709630012512207
aF1.9176621437072754
aF2.1367719173431396
aF2.1033928394317627
a.