(lp0
F1.7218608856201172
aF1.7394700050354004
aF1.7357351779937744
aF1.7418081760406494
aF1.8150479793548584
aF1.763314962387085
aF1.6879708766937256
aF1.7433271408081055
aF1.742414951324463
aF1.7154369354248047
aF1.7051150798797607
aF1.679671049118042
aF1.738365888595581
aF1.7143640518188477
aF1.6962890625
aF1.710378885269165
aF1.6884880065917969
aF1.6972761154174805
aF1.7144739627838135
aF1.7089149951934814
aF1.7447760105133057
aF1.7089858055114746
aF1.7098619937896729
aF1.7456488609313965
aF1.714627981185913
aF1.6882450580596924
aF1.7151479721069336
aF1.691514015197754
aF1.6708319187164307
aF1.753967046737671
aF1.6838901042938232
aF1.7118358612060547
aF1.7109990119934082
aF1.6912281513214111
aF1.6812841892242432
aF1.694983959197998
aF1.7081999778747559
aF1.7164781093597412
a.